ARM GAS  /tmp/ccBweOod.s 			page 1


   1              		.syntax unified
   2              		.cpu cortex-m3
   3              		.fpu softvfp
   4              		.eabi_attribute 20, 1
   5              		.eabi_attribute 21, 1
   6              		.eabi_attribute 23, 3
   7              		.eabi_attribute 24, 1
   8              		.eabi_attribute 25, 1
   9              		.eabi_attribute 26, 1
  10              		.eabi_attribute 30, 6
  11              		.eabi_attribute 34, 1
  12              		.eabi_attribute 18, 4
  13              		.file	"system_stm32f10x.c"
  14              	@ GNU C (GNU Tools for ARM Embedded Processors) version 4.6.2 20121016 (release) [ARM/embedded-4_6-
  15              	@	compiled by GNU C version 4.3.6, GMP version 4.3.2, MPFR version 2.4.2, MPC version 0.8.1
  16              	@ GGC heuristics: --param ggc-min-expand=100 --param ggc-min-heapsize=131072
  17              	@ options passed:  -I . -I ./inc -I ./cmsis/core -I ./cmsis/device
  18              	@ -iprefix /opt/gcc-arm-none-eabi-4_6-2012q4/bin/../lib/gcc/arm-none-eabi/4.6.2/
  19              	@ -isysroot /opt/gcc-arm-none-eabi-4_6-2012q4/bin/../arm-none-eabi
  20              	@ -MD cmsis/device/system_stm32f10x.d -MF .dep/system_stm32f10x.o.d -MP
  21              	@ -MQ cmsis/device/system_stm32f10x.o -D__USES_INITFINI__ -D STM32F10X_MD
  22              	@ -D RUN_FROM_FLASH=0 -D VECT_TAB_SRAM cmsis/device/system_stm32f10x.c
  23              	@ -mthumb -mcpu=cortex-m3 -mfloat-abi=soft -mfpu=fpv4-sp-d16
  24              	@ -auxbase-strip cmsis/device/system_stm32f10x.o -gdwarf-2 -O0 -Wall
  25              	@ -Wstrict-prototypes -fverbose-asm
  26              	@ options enabled:  -fauto-inc-dec -fbranch-count-reg -fcommon
  27              	@ -fdelete-null-pointer-checks -fdwarf2-cfi-asm -fearly-inlining
  28              	@ -feliminate-unused-debug-types -ffunction-cse -fgcse-lm -fident
  29              	@ -finline-functions-called-once -fira-share-save-slots
  30              	@ -fira-share-spill-slots -fivopts -fkeep-static-consts
  31              	@ -fleading-underscore -fmath-errno -fmerge-debug-strings
  32              	@ -fmove-loop-invariants -fpeephole -fprefetch-loop-arrays
  33              	@ -freg-struct-return -fsched-critical-path-heuristic
  34              	@ -fsched-dep-count-heuristic -fsched-group-heuristic -fsched-interblock
  35              	@ -fsched-last-insn-heuristic -fsched-rank-heuristic -fsched-spec
  36              	@ -fsched-spec-insn-heuristic -fsched-stalled-insns-dep -fshow-column
  37              	@ -fsigned-zeros -fsplit-ivs-in-unroller -fstrict-volatile-bitfields
  38              	@ -ftrapping-math -ftree-cselim -ftree-forwprop -ftree-loop-if-convert
  39              	@ -ftree-loop-im -ftree-loop-ivcanon -ftree-loop-optimize
  40              	@ -ftree-parallelize-loops= -ftree-phiprop -ftree-pta -ftree-reassoc
  41              	@ -ftree-scev-cprop -ftree-slp-vectorize -ftree-vect-loop-version
  42              	@ -funit-at-a-time -fverbose-asm -fzero-initialized-in-bss
  43              	@ -mfix-cortex-m3-ldrd -mlittle-endian -msched-prolog -mthumb
  44              	@ -munaligned-access
  45              	
  46              		.text
  47              	.Ltext0:
  48              	@ Compiler executable checksum: 5375e73801c740cfc46b0c557cf2e4d9
  49              	
  50              		.cfi_sections	.debug_frame
  51              		.global	SystemCoreClock
  52              		.data
  53              		.align	2
  54              		.type	SystemCoreClock, %object
  55              		.size	SystemCoreClock, 4
  56              	SystemCoreClock:
  57 0000 00A24A04 		.word	72000000
ARM GAS  /tmp/ccBweOod.s 			page 2


  58              		.global	AHBPrescTable
  59              		.align	2
  60              		.type	AHBPrescTable, %object
  61              		.size	AHBPrescTable, 16
  62              	AHBPrescTable:
  63 0004 00       		.byte	0
  64 0005 00       		.byte	0
  65 0006 00       		.byte	0
  66 0007 00       		.byte	0
  67 0008 00       		.byte	0
  68 0009 00       		.byte	0
  69 000a 00       		.byte	0
  70 000b 00       		.byte	0
  71 000c 01       		.byte	1
  72 000d 02       		.byte	2
  73 000e 03       		.byte	3
  74 000f 04       		.byte	4
  75 0010 06       		.byte	6
  76 0011 07       		.byte	7
  77 0012 08       		.byte	8
  78 0013 09       		.byte	9
  79              		.text
  80              		.align	2
  81              		.global	SystemInit
  82              		.thumb
  83              		.thumb_func
  84              		.type	SystemInit, %function
  85              	SystemInit:
  86              	.LFB55:
  87              		.file 1 "cmsis/device/system_stm32f10x.c"
   1:cmsis/device/system_stm32f10x.c **** /**
   2:cmsis/device/system_stm32f10x.c ****   ******************************************************************************
   3:cmsis/device/system_stm32f10x.c ****   * @file    system_stm32f10x.c
   4:cmsis/device/system_stm32f10x.c ****   * @author  MCD Application Team
   5:cmsis/device/system_stm32f10x.c ****   * @version V3.5.0
   6:cmsis/device/system_stm32f10x.c ****   * @date    11-March-2011
   7:cmsis/device/system_stm32f10x.c ****   * @brief   CMSIS Cortex-M3 Device Peripheral Access Layer System Source File.
   8:cmsis/device/system_stm32f10x.c ****   * 
   9:cmsis/device/system_stm32f10x.c ****   * 1.  This file provides two functions and one global variable to be called from 
  10:cmsis/device/system_stm32f10x.c ****   *     user application:
  11:cmsis/device/system_stm32f10x.c ****   *      - SystemInit(): Setups the system clock (System clock source, PLL Multiplier
  12:cmsis/device/system_stm32f10x.c ****   *                      factors, AHB/APBx prescalers and Flash settings). 
  13:cmsis/device/system_stm32f10x.c ****   *                      This function is called at startup just after reset and 
  14:cmsis/device/system_stm32f10x.c ****   *                      before branch to main program. This call is made inside
  15:cmsis/device/system_stm32f10x.c ****   *                      the "startup_stm32f10x_xx.s" file.
  16:cmsis/device/system_stm32f10x.c ****   *
  17:cmsis/device/system_stm32f10x.c ****   *      - SystemCoreClock variable: Contains the core clock (HCLK), it can be used
  18:cmsis/device/system_stm32f10x.c ****   *                                  by the user application to setup the SysTick 
  19:cmsis/device/system_stm32f10x.c ****   *                                  timer or configure other parameters.
  20:cmsis/device/system_stm32f10x.c ****   *                                     
  21:cmsis/device/system_stm32f10x.c ****   *      - SystemCoreClockUpdate(): Updates the variable SystemCoreClock and must
  22:cmsis/device/system_stm32f10x.c ****   *                                 be called whenever the core clock is changed
  23:cmsis/device/system_stm32f10x.c ****   *                                 during program execution.
  24:cmsis/device/system_stm32f10x.c ****   *
  25:cmsis/device/system_stm32f10x.c ****   * 2. After each device reset the HSI (8 MHz) is used as system clock source.
  26:cmsis/device/system_stm32f10x.c ****   *    Then SystemInit() function is called, in "startup_stm32f10x_xx.s" file, to
  27:cmsis/device/system_stm32f10x.c ****   *    configure the system clock before to branch to main program.
ARM GAS  /tmp/ccBweOod.s 			page 3


  28:cmsis/device/system_stm32f10x.c ****   *
  29:cmsis/device/system_stm32f10x.c ****   * 3. If the system clock source selected by user fails to startup, the SystemInit()
  30:cmsis/device/system_stm32f10x.c ****   *    function will do nothing and HSI still used as system clock source. User can 
  31:cmsis/device/system_stm32f10x.c ****   *    add some code to deal with this issue inside the SetSysClock() function.
  32:cmsis/device/system_stm32f10x.c ****   *
  33:cmsis/device/system_stm32f10x.c ****   * 4. The default value of HSE crystal is set to 8 MHz (or 25 MHz, depedning on
  34:cmsis/device/system_stm32f10x.c ****   *    the product used), refer to "HSE_VALUE" define in "stm32f10x.h" file. 
  35:cmsis/device/system_stm32f10x.c ****   *    When HSE is used as system clock source, directly or through PLL, and you
  36:cmsis/device/system_stm32f10x.c ****   *    are using different crystal you have to adapt the HSE value to your own
  37:cmsis/device/system_stm32f10x.c ****   *    configuration.
  38:cmsis/device/system_stm32f10x.c ****   *        
  39:cmsis/device/system_stm32f10x.c ****   ******************************************************************************
  40:cmsis/device/system_stm32f10x.c ****   * @attention
  41:cmsis/device/system_stm32f10x.c ****   *
  42:cmsis/device/system_stm32f10x.c ****   * THE PRESENT FIRMWARE WHICH IS FOR GUIDANCE ONLY AIMS AT PROVIDING CUSTOMERS
  43:cmsis/device/system_stm32f10x.c ****   * WITH CODING INFORMATION REGARDING THEIR PRODUCTS IN ORDER FOR THEM TO SAVE
  44:cmsis/device/system_stm32f10x.c ****   * TIME. AS A RESULT, STMICROELECTRONICS SHALL NOT BE HELD LIABLE FOR ANY
  45:cmsis/device/system_stm32f10x.c ****   * DIRECT, INDIRECT OR CONSEQUENTIAL DAMAGES WITH RESPECT TO ANY CLAIMS ARISING
  46:cmsis/device/system_stm32f10x.c ****   * FROM THE CONTENT OF SUCH FIRMWARE AND/OR THE USE MADE BY CUSTOMERS OF THE
  47:cmsis/device/system_stm32f10x.c ****   * CODING INFORMATION CONTAINED HEREIN IN CONNECTION WITH THEIR PRODUCTS.
  48:cmsis/device/system_stm32f10x.c ****   *
  49:cmsis/device/system_stm32f10x.c ****   * <h2><center>&copy; COPYRIGHT 2011 STMicroelectronics</center></h2>
  50:cmsis/device/system_stm32f10x.c ****   ******************************************************************************
  51:cmsis/device/system_stm32f10x.c ****   */
  52:cmsis/device/system_stm32f10x.c **** 
  53:cmsis/device/system_stm32f10x.c **** /** @addtogroup CMSIS
  54:cmsis/device/system_stm32f10x.c ****   * @{
  55:cmsis/device/system_stm32f10x.c ****   */
  56:cmsis/device/system_stm32f10x.c **** 
  57:cmsis/device/system_stm32f10x.c **** /** @addtogroup stm32f10x_system
  58:cmsis/device/system_stm32f10x.c ****   * @{
  59:cmsis/device/system_stm32f10x.c ****   */  
  60:cmsis/device/system_stm32f10x.c ****   
  61:cmsis/device/system_stm32f10x.c **** /** @addtogroup STM32F10x_System_Private_Includes
  62:cmsis/device/system_stm32f10x.c ****   * @{
  63:cmsis/device/system_stm32f10x.c ****   */
  64:cmsis/device/system_stm32f10x.c **** 
  65:cmsis/device/system_stm32f10x.c **** #include "stm32f10x.h"
  66:cmsis/device/system_stm32f10x.c **** 
  67:cmsis/device/system_stm32f10x.c **** /**
  68:cmsis/device/system_stm32f10x.c ****   * @}
  69:cmsis/device/system_stm32f10x.c ****   */
  70:cmsis/device/system_stm32f10x.c **** 
  71:cmsis/device/system_stm32f10x.c **** /** @addtogroup STM32F10x_System_Private_TypesDefinitions
  72:cmsis/device/system_stm32f10x.c ****   * @{
  73:cmsis/device/system_stm32f10x.c ****   */
  74:cmsis/device/system_stm32f10x.c **** 
  75:cmsis/device/system_stm32f10x.c **** /**
  76:cmsis/device/system_stm32f10x.c ****   * @}
  77:cmsis/device/system_stm32f10x.c ****   */
  78:cmsis/device/system_stm32f10x.c **** 
  79:cmsis/device/system_stm32f10x.c **** /** @addtogroup STM32F10x_System_Private_Defines
  80:cmsis/device/system_stm32f10x.c ****   * @{
  81:cmsis/device/system_stm32f10x.c ****   */
  82:cmsis/device/system_stm32f10x.c **** 
  83:cmsis/device/system_stm32f10x.c **** /*!< Uncomment the line corresponding to the desired System clock (SYSCLK)
  84:cmsis/device/system_stm32f10x.c ****    frequency (after reset the HSI is used as SYSCLK source)
ARM GAS  /tmp/ccBweOod.s 			page 4


  85:cmsis/device/system_stm32f10x.c ****    
  86:cmsis/device/system_stm32f10x.c ****    IMPORTANT NOTE:
  87:cmsis/device/system_stm32f10x.c ****    ============== 
  88:cmsis/device/system_stm32f10x.c ****    1. After each device reset the HSI is used as System clock source.
  89:cmsis/device/system_stm32f10x.c **** 
  90:cmsis/device/system_stm32f10x.c ****    2. Please make sure that the selected System clock doesn't exceed your device's
  91:cmsis/device/system_stm32f10x.c ****       maximum frequency.
  92:cmsis/device/system_stm32f10x.c ****       
  93:cmsis/device/system_stm32f10x.c ****    3. If none of the define below is enabled, the HSI is used as System clock
  94:cmsis/device/system_stm32f10x.c ****     source.
  95:cmsis/device/system_stm32f10x.c **** 
  96:cmsis/device/system_stm32f10x.c ****    4. The System clock configuration functions provided within this file assume that:
  97:cmsis/device/system_stm32f10x.c ****         - For Low, Medium and High density Value line devices an external 8MHz 
  98:cmsis/device/system_stm32f10x.c ****           crystal is used to drive the System clock.
  99:cmsis/device/system_stm32f10x.c ****         - For Low, Medium and High density devices an external 8MHz crystal is
 100:cmsis/device/system_stm32f10x.c ****           used to drive the System clock.
 101:cmsis/device/system_stm32f10x.c ****         - For Connectivity line devices an external 25MHz crystal is used to drive
 102:cmsis/device/system_stm32f10x.c ****           the System clock.
 103:cmsis/device/system_stm32f10x.c ****      If you are using different crystal you have to adapt those functions accordingly.
 104:cmsis/device/system_stm32f10x.c ****     */
 105:cmsis/device/system_stm32f10x.c ****     
 106:cmsis/device/system_stm32f10x.c **** #if defined (STM32F10X_LD_VL) || (defined STM32F10X_MD_VL) || (defined STM32F10X_HD_VL)
 107:cmsis/device/system_stm32f10x.c **** /* #define SYSCLK_FREQ_HSE    HSE_VALUE */
 108:cmsis/device/system_stm32f10x.c ****  #define SYSCLK_FREQ_24MHz  24000000
 109:cmsis/device/system_stm32f10x.c **** #else
 110:cmsis/device/system_stm32f10x.c **** /* #define SYSCLK_FREQ_HSE    HSE_VALUE */
 111:cmsis/device/system_stm32f10x.c **** /* #define SYSCLK_FREQ_24MHz  24000000 */ 
 112:cmsis/device/system_stm32f10x.c **** /* #define SYSCLK_FREQ_36MHz  36000000 */
 113:cmsis/device/system_stm32f10x.c **** /* #define SYSCLK_FREQ_48MHz  48000000 */
 114:cmsis/device/system_stm32f10x.c **** /* #define SYSCLK_FREQ_56MHz  56000000 */
 115:cmsis/device/system_stm32f10x.c **** #define SYSCLK_FREQ_72MHz  72000000
 116:cmsis/device/system_stm32f10x.c **** #endif
 117:cmsis/device/system_stm32f10x.c **** 
 118:cmsis/device/system_stm32f10x.c **** /*!< Uncomment the following line if you need to use external SRAM mounted
 119:cmsis/device/system_stm32f10x.c ****      on STM3210E-EVAL board (STM32 High density and XL-density devices) or on 
 120:cmsis/device/system_stm32f10x.c ****      STM32100E-EVAL board (STM32 High-density value line devices) as data memory */ 
 121:cmsis/device/system_stm32f10x.c **** #if defined (STM32F10X_HD) || (defined STM32F10X_XL) || (defined STM32F10X_HD_VL)
 122:cmsis/device/system_stm32f10x.c **** /* #define DATA_IN_ExtSRAM */
 123:cmsis/device/system_stm32f10x.c **** #endif
 124:cmsis/device/system_stm32f10x.c **** 
 125:cmsis/device/system_stm32f10x.c **** /*!< Uncomment the following line if you need to relocate your vector Table in
 126:cmsis/device/system_stm32f10x.c ****      Internal SRAM. */ 
 127:cmsis/device/system_stm32f10x.c **** /* #define VECT_TAB_SRAM */
 128:cmsis/device/system_stm32f10x.c **** #define VECT_TAB_OFFSET  0x0 /*!< Vector Table base offset field. 
 129:cmsis/device/system_stm32f10x.c ****                                   This value must be a multiple of 0x200. */
 130:cmsis/device/system_stm32f10x.c **** 
 131:cmsis/device/system_stm32f10x.c **** 
 132:cmsis/device/system_stm32f10x.c **** /**
 133:cmsis/device/system_stm32f10x.c ****   * @}
 134:cmsis/device/system_stm32f10x.c ****   */
 135:cmsis/device/system_stm32f10x.c **** 
 136:cmsis/device/system_stm32f10x.c **** /** @addtogroup STM32F10x_System_Private_Macros
 137:cmsis/device/system_stm32f10x.c ****   * @{
 138:cmsis/device/system_stm32f10x.c ****   */
 139:cmsis/device/system_stm32f10x.c **** 
 140:cmsis/device/system_stm32f10x.c **** /**
 141:cmsis/device/system_stm32f10x.c ****   * @}
ARM GAS  /tmp/ccBweOod.s 			page 5


 142:cmsis/device/system_stm32f10x.c ****   */
 143:cmsis/device/system_stm32f10x.c **** 
 144:cmsis/device/system_stm32f10x.c **** /** @addtogroup STM32F10x_System_Private_Variables
 145:cmsis/device/system_stm32f10x.c ****   * @{
 146:cmsis/device/system_stm32f10x.c ****   */
 147:cmsis/device/system_stm32f10x.c **** 
 148:cmsis/device/system_stm32f10x.c **** /*******************************************************************************
 149:cmsis/device/system_stm32f10x.c **** *  Clock Definitions
 150:cmsis/device/system_stm32f10x.c **** *******************************************************************************/
 151:cmsis/device/system_stm32f10x.c **** #ifdef SYSCLK_FREQ_HSE
 152:cmsis/device/system_stm32f10x.c ****   uint32_t SystemCoreClock         = SYSCLK_FREQ_HSE;        /*!< System Clock Frequency (Core Cloc
 153:cmsis/device/system_stm32f10x.c **** #elif defined SYSCLK_FREQ_24MHz
 154:cmsis/device/system_stm32f10x.c ****   uint32_t SystemCoreClock         = SYSCLK_FREQ_24MHz;        /*!< System Clock Frequency (Core Cl
 155:cmsis/device/system_stm32f10x.c **** #elif defined SYSCLK_FREQ_36MHz
 156:cmsis/device/system_stm32f10x.c ****   uint32_t SystemCoreClock         = SYSCLK_FREQ_36MHz;        /*!< System Clock Frequency (Core Cl
 157:cmsis/device/system_stm32f10x.c **** #elif defined SYSCLK_FREQ_48MHz
 158:cmsis/device/system_stm32f10x.c ****   uint32_t SystemCoreClock         = SYSCLK_FREQ_48MHz;        /*!< System Clock Frequency (Core Cl
 159:cmsis/device/system_stm32f10x.c **** #elif defined SYSCLK_FREQ_56MHz
 160:cmsis/device/system_stm32f10x.c ****   uint32_t SystemCoreClock         = SYSCLK_FREQ_56MHz;        /*!< System Clock Frequency (Core Cl
 161:cmsis/device/system_stm32f10x.c **** #elif defined SYSCLK_FREQ_72MHz
 162:cmsis/device/system_stm32f10x.c ****   uint32_t SystemCoreClock         = SYSCLK_FREQ_72MHz;        /*!< System Clock Frequency (Core Cl
 163:cmsis/device/system_stm32f10x.c **** #else /*!< HSI Selected as System Clock source */
 164:cmsis/device/system_stm32f10x.c ****   uint32_t SystemCoreClock         = HSI_VALUE;        /*!< System Clock Frequency (Core Clock) */
 165:cmsis/device/system_stm32f10x.c **** #endif
 166:cmsis/device/system_stm32f10x.c **** 
 167:cmsis/device/system_stm32f10x.c **** __I uint8_t AHBPrescTable[16] = {0, 0, 0, 0, 0, 0, 0, 0, 1, 2, 3, 4, 6, 7, 8, 9};
 168:cmsis/device/system_stm32f10x.c **** /**
 169:cmsis/device/system_stm32f10x.c ****   * @}
 170:cmsis/device/system_stm32f10x.c ****   */
 171:cmsis/device/system_stm32f10x.c **** 
 172:cmsis/device/system_stm32f10x.c **** /** @addtogroup STM32F10x_System_Private_FunctionPrototypes
 173:cmsis/device/system_stm32f10x.c ****   * @{
 174:cmsis/device/system_stm32f10x.c ****   */
 175:cmsis/device/system_stm32f10x.c **** 
 176:cmsis/device/system_stm32f10x.c **** static void SetSysClock(void);
 177:cmsis/device/system_stm32f10x.c **** 
 178:cmsis/device/system_stm32f10x.c **** #ifdef SYSCLK_FREQ_HSE
 179:cmsis/device/system_stm32f10x.c ****   static void SetSysClockToHSE(void);
 180:cmsis/device/system_stm32f10x.c **** #elif defined SYSCLK_FREQ_24MHz
 181:cmsis/device/system_stm32f10x.c ****   static void SetSysClockTo24(void);
 182:cmsis/device/system_stm32f10x.c **** #elif defined SYSCLK_FREQ_36MHz
 183:cmsis/device/system_stm32f10x.c ****   static void SetSysClockTo36(void);
 184:cmsis/device/system_stm32f10x.c **** #elif defined SYSCLK_FREQ_48MHz
 185:cmsis/device/system_stm32f10x.c ****   static void SetSysClockTo48(void);
 186:cmsis/device/system_stm32f10x.c **** #elif defined SYSCLK_FREQ_56MHz
 187:cmsis/device/system_stm32f10x.c ****   static void SetSysClockTo56(void);  
 188:cmsis/device/system_stm32f10x.c **** #elif defined SYSCLK_FREQ_72MHz
 189:cmsis/device/system_stm32f10x.c ****   static void SetSysClockTo72(void);
 190:cmsis/device/system_stm32f10x.c **** #endif
 191:cmsis/device/system_stm32f10x.c **** 
 192:cmsis/device/system_stm32f10x.c **** #ifdef DATA_IN_ExtSRAM
 193:cmsis/device/system_stm32f10x.c ****   static void SystemInit_ExtMemCtl(void); 
 194:cmsis/device/system_stm32f10x.c **** #endif /* DATA_IN_ExtSRAM */
 195:cmsis/device/system_stm32f10x.c **** 
 196:cmsis/device/system_stm32f10x.c **** /**
 197:cmsis/device/system_stm32f10x.c ****   * @}
 198:cmsis/device/system_stm32f10x.c ****   */
ARM GAS  /tmp/ccBweOod.s 			page 6


 199:cmsis/device/system_stm32f10x.c **** 
 200:cmsis/device/system_stm32f10x.c **** /** @addtogroup STM32F10x_System_Private_Functions
 201:cmsis/device/system_stm32f10x.c ****   * @{
 202:cmsis/device/system_stm32f10x.c ****   */
 203:cmsis/device/system_stm32f10x.c **** 
 204:cmsis/device/system_stm32f10x.c **** /**
 205:cmsis/device/system_stm32f10x.c ****   * @brief  Setup the microcontroller system
 206:cmsis/device/system_stm32f10x.c ****   *         Initialize the Embedded Flash Interface, the PLL and update the 
 207:cmsis/device/system_stm32f10x.c ****   *         SystemCoreClock variable.
 208:cmsis/device/system_stm32f10x.c ****   * @note   This function should be used only after reset.
 209:cmsis/device/system_stm32f10x.c ****   * @param  None
 210:cmsis/device/system_stm32f10x.c ****   * @retval None
 211:cmsis/device/system_stm32f10x.c ****   */
 212:cmsis/device/system_stm32f10x.c **** void SystemInit (void)
 213:cmsis/device/system_stm32f10x.c **** {
  88              		.loc 1 213 0
  89              		.cfi_startproc
  90              		@ args = 0, pretend = 0, frame = 0
  91              		@ frame_needed = 1, uses_anonymous_args = 0
  92 0000 80B5     		push	{r7, lr}	@
  93              	.LCFI0:
  94              		.cfi_def_cfa_offset 8
  95              		.cfi_offset 14, -4
  96              		.cfi_offset 7, -8
  97 0002 00AF     		add	r7, sp, #0	@,,
  98              	.LCFI1:
  99              		.cfi_def_cfa_register 7
 214:cmsis/device/system_stm32f10x.c ****   /* Reset the RCC clock configuration to the default reset state(for debug purpose) */
 215:cmsis/device/system_stm32f10x.c ****   /* Set HSION bit */
 216:cmsis/device/system_stm32f10x.c ****   RCC->CR |= (uint32_t)0x00000001;
 100              		.loc 1 216 0
 101 0004 4FF48053 		mov	r3, #4096	@ D.5753,
 102 0008 C4F20203 		movt	r3, 16386	@ D.5753,
 103 000c 4FF48052 		mov	r2, #4096	@ D.5754,
 104 0010 C4F20202 		movt	r2, 16386	@ D.5754,
 105 0014 1268     		ldr	r2, [r2, #0]	@ tmp156,* D.5754
 106 0016 42F00102 		orr	r2, r2, #1	@ D.5756, D.5755,
 107 001a 1A60     		str	r2, [r3, #0]	@ D.5756, D.5753_1->CR
 217:cmsis/device/system_stm32f10x.c **** 
 218:cmsis/device/system_stm32f10x.c ****   /* Reset SW, HPRE, PPRE1, PPRE2, ADCPRE and MCO bits */
 219:cmsis/device/system_stm32f10x.c **** #ifndef STM32F10X_CL
 220:cmsis/device/system_stm32f10x.c ****   RCC->CFGR &= (uint32_t)0xF8FF0000;
 108              		.loc 1 220 0
 109 001c 4FF48052 		mov	r2, #4096	@ D.5757,
 110 0020 C4F20202 		movt	r2, 16386	@ D.5757,
 111 0024 4FF48053 		mov	r3, #4096	@ D.5758,
 112 0028 C4F20203 		movt	r3, 16386	@ D.5758,
 113 002c 5B68     		ldr	r3, [r3, #4]	@ tmp157,
 114 002e 1946     		mov	r1, r3	@ D.5759, tmp157
 115 0030 4FF00003 		mov	r3, #0	@ D.5760,
 116 0034 CFF6FF03 		movt	r3, 63743	@ D.5760,
 117 0038 0B40     		ands	r3, r3, r1	@, D.5760, D.5760, D.5759
 118 003a 5360     		str	r3, [r2, #4]	@ D.5760, D.5757_5->CFGR
 221:cmsis/device/system_stm32f10x.c **** #else
 222:cmsis/device/system_stm32f10x.c ****   RCC->CFGR &= (uint32_t)0xF0FF0000;
 223:cmsis/device/system_stm32f10x.c **** #endif /* STM32F10X_CL */   
 224:cmsis/device/system_stm32f10x.c ****   
ARM GAS  /tmp/ccBweOod.s 			page 7


 225:cmsis/device/system_stm32f10x.c ****   /* Reset HSEON, CSSON and PLLON bits */
 226:cmsis/device/system_stm32f10x.c ****   RCC->CR &= (uint32_t)0xFEF6FFFF;
 119              		.loc 1 226 0
 120 003c 4FF48053 		mov	r3, #4096	@ D.5761,
 121 0040 C4F20203 		movt	r3, 16386	@ D.5761,
 122 0044 4FF48052 		mov	r2, #4096	@ D.5762,
 123 0048 C4F20202 		movt	r2, 16386	@ D.5762,
 124 004c 1268     		ldr	r2, [r2, #0]	@ tmp158,* D.5762
 125 004e 22F08472 		bic	r2, r2, #17301504	@ D.5764, D.5763,
 126 0052 22F48032 		bic	r2, r2, #65536	@ D.5764, D.5764,
 127 0056 1A60     		str	r2, [r3, #0]	@ D.5764, D.5761_9->CR
 227:cmsis/device/system_stm32f10x.c **** 
 228:cmsis/device/system_stm32f10x.c ****   /* Reset HSEBYP bit */
 229:cmsis/device/system_stm32f10x.c ****   RCC->CR &= (uint32_t)0xFFFBFFFF;
 128              		.loc 1 229 0
 129 0058 4FF48053 		mov	r3, #4096	@ D.5765,
 130 005c C4F20203 		movt	r3, 16386	@ D.5765,
 131 0060 4FF48052 		mov	r2, #4096	@ D.5766,
 132 0064 C4F20202 		movt	r2, 16386	@ D.5766,
 133 0068 1268     		ldr	r2, [r2, #0]	@ tmp159,* D.5766
 134 006a 22F48022 		bic	r2, r2, #262144	@ D.5768, D.5767,
 135 006e 1A60     		str	r2, [r3, #0]	@ D.5768, D.5765_13->CR
 230:cmsis/device/system_stm32f10x.c **** 
 231:cmsis/device/system_stm32f10x.c ****   /* Reset PLLSRC, PLLXTPRE, PLLMUL and USBPRE/OTGFSPRE bits */
 232:cmsis/device/system_stm32f10x.c ****   RCC->CFGR &= (uint32_t)0xFF80FFFF;
 136              		.loc 1 232 0
 137 0070 4FF48053 		mov	r3, #4096	@ D.5769,
 138 0074 C4F20203 		movt	r3, 16386	@ D.5769,
 139 0078 4FF48052 		mov	r2, #4096	@ D.5770,
 140 007c C4F20202 		movt	r2, 16386	@ D.5770,
 141 0080 5268     		ldr	r2, [r2, #4]	@ tmp160,
 142 0082 22F4FE02 		bic	r2, r2, #8323072	@ D.5772, D.5771,
 143 0086 5A60     		str	r2, [r3, #4]	@ D.5772, D.5769_17->CFGR
 233:cmsis/device/system_stm32f10x.c **** 
 234:cmsis/device/system_stm32f10x.c **** #ifdef STM32F10X_CL
 235:cmsis/device/system_stm32f10x.c ****   /* Reset PLL2ON and PLL3ON bits */
 236:cmsis/device/system_stm32f10x.c ****   RCC->CR &= (uint32_t)0xEBFFFFFF;
 237:cmsis/device/system_stm32f10x.c **** 
 238:cmsis/device/system_stm32f10x.c ****   /* Disable all interrupts and clear pending bits  */
 239:cmsis/device/system_stm32f10x.c ****   RCC->CIR = 0x00FF0000;
 240:cmsis/device/system_stm32f10x.c **** 
 241:cmsis/device/system_stm32f10x.c ****   /* Reset CFGR2 register */
 242:cmsis/device/system_stm32f10x.c ****   RCC->CFGR2 = 0x00000000;
 243:cmsis/device/system_stm32f10x.c **** #elif defined (STM32F10X_LD_VL) || defined (STM32F10X_MD_VL) || (defined STM32F10X_HD_VL)
 244:cmsis/device/system_stm32f10x.c ****   /* Disable all interrupts and clear pending bits  */
 245:cmsis/device/system_stm32f10x.c ****   RCC->CIR = 0x009F0000;
 246:cmsis/device/system_stm32f10x.c **** 
 247:cmsis/device/system_stm32f10x.c ****   /* Reset CFGR2 register */
 248:cmsis/device/system_stm32f10x.c ****   RCC->CFGR2 = 0x00000000;      
 249:cmsis/device/system_stm32f10x.c **** #else
 250:cmsis/device/system_stm32f10x.c ****   /* Disable all interrupts and clear pending bits  */
 251:cmsis/device/system_stm32f10x.c ****   RCC->CIR = 0x009F0000;
 144              		.loc 1 251 0
 145 0088 4FF48053 		mov	r3, #4096	@ D.5773,
 146 008c C4F20203 		movt	r3, 16386	@ D.5773,
 147 0090 4FF41F02 		mov	r2, #10420224	@ tmp161,
 148 0094 9A60     		str	r2, [r3, #8]	@ tmp161, D.5773_21->CIR
ARM GAS  /tmp/ccBweOod.s 			page 8


 252:cmsis/device/system_stm32f10x.c **** #endif /* STM32F10X_CL */
 253:cmsis/device/system_stm32f10x.c ****     
 254:cmsis/device/system_stm32f10x.c **** #if defined (STM32F10X_HD) || (defined STM32F10X_XL) || (defined STM32F10X_HD_VL)
 255:cmsis/device/system_stm32f10x.c ****   #ifdef DATA_IN_ExtSRAM
 256:cmsis/device/system_stm32f10x.c ****     SystemInit_ExtMemCtl(); 
 257:cmsis/device/system_stm32f10x.c ****   #endif /* DATA_IN_ExtSRAM */
 258:cmsis/device/system_stm32f10x.c **** #endif 
 259:cmsis/device/system_stm32f10x.c **** 
 260:cmsis/device/system_stm32f10x.c ****   /* Configure the System clock frequency, HCLK, PCLK2 and PCLK1 prescalers */
 261:cmsis/device/system_stm32f10x.c ****   /* Configure the Flash Latency cycles and enable prefetch buffer */
 262:cmsis/device/system_stm32f10x.c ****   SetSysClock();
 149              		.loc 1 262 0
 150 0096 00F0ADF8 		bl	SetSysClock	@
 263:cmsis/device/system_stm32f10x.c **** 
 264:cmsis/device/system_stm32f10x.c **** #ifdef VECT_TAB_SRAM
 265:cmsis/device/system_stm32f10x.c ****   SCB->VTOR = SRAM_BASE | VECT_TAB_OFFSET; /* Vector Table Relocation in Internal SRAM. */
 151              		.loc 1 265 0
 152 009a 4FF46D43 		mov	r3, #60672	@ D.5774,
 153 009e CEF20003 		movt	r3, 57344	@ D.5774,
 154 00a2 4FF00052 		mov	r2, #536870912	@ tmp162,
 155 00a6 9A60     		str	r2, [r3, #8]	@ tmp162, D.5774_22->VTOR
 266:cmsis/device/system_stm32f10x.c **** #else
 267:cmsis/device/system_stm32f10x.c ****   SCB->VTOR = FLASH_BASE | VECT_TAB_OFFSET; /* Vector Table Relocation in Internal FLASH. */
 268:cmsis/device/system_stm32f10x.c **** #endif 
 269:cmsis/device/system_stm32f10x.c **** }
 156              		.loc 1 269 0
 157 00a8 80BD     		pop	{r7, pc}	@
 158              		.cfi_endproc
 159              	.LFE55:
 160              		.size	SystemInit, .-SystemInit
 161 00aa 00BF     		.align	2
 162              		.global	SystemCoreClockUpdate
 163              		.thumb
 164              		.thumb_func
 165              		.type	SystemCoreClockUpdate, %function
 166              	SystemCoreClockUpdate:
 167              	.LFB56:
 270:cmsis/device/system_stm32f10x.c **** 
 271:cmsis/device/system_stm32f10x.c **** /**
 272:cmsis/device/system_stm32f10x.c ****   * @brief  Update SystemCoreClock variable according to Clock Register Values.
 273:cmsis/device/system_stm32f10x.c ****   *         The SystemCoreClock variable contains the core clock (HCLK), it can
 274:cmsis/device/system_stm32f10x.c ****   *         be used by the user application to setup the SysTick timer or configure
 275:cmsis/device/system_stm32f10x.c ****   *         other parameters.
 276:cmsis/device/system_stm32f10x.c ****   *           
 277:cmsis/device/system_stm32f10x.c ****   * @note   Each time the core clock (HCLK) changes, this function must be called
 278:cmsis/device/system_stm32f10x.c ****   *         to update SystemCoreClock variable value. Otherwise, any configuration
 279:cmsis/device/system_stm32f10x.c ****   *         based on this variable will be incorrect.         
 280:cmsis/device/system_stm32f10x.c ****   *     
 281:cmsis/device/system_stm32f10x.c ****   * @note   - The system frequency computed by this function is not the real 
 282:cmsis/device/system_stm32f10x.c ****   *           frequency in the chip. It is calculated based on the predefined 
 283:cmsis/device/system_stm32f10x.c ****   *           constant and the selected clock source:
 284:cmsis/device/system_stm32f10x.c ****   *             
 285:cmsis/device/system_stm32f10x.c ****   *           - If SYSCLK source is HSI, SystemCoreClock will contain the HSI_VALUE(*)
 286:cmsis/device/system_stm32f10x.c ****   *                                              
 287:cmsis/device/system_stm32f10x.c ****   *           - If SYSCLK source is HSE, SystemCoreClock will contain the HSE_VALUE(**)
 288:cmsis/device/system_stm32f10x.c ****   *                          
 289:cmsis/device/system_stm32f10x.c ****   *           - If SYSCLK source is PLL, SystemCoreClock will contain the HSE_VALUE(**) 
ARM GAS  /tmp/ccBweOod.s 			page 9


 290:cmsis/device/system_stm32f10x.c ****   *             or HSI_VALUE(*) multiplied by the PLL factors.
 291:cmsis/device/system_stm32f10x.c ****   *         
 292:cmsis/device/system_stm32f10x.c ****   *         (*) HSI_VALUE is a constant defined in stm32f1xx.h file (default value
 293:cmsis/device/system_stm32f10x.c ****   *             8 MHz) but the real value may vary depending on the variations
 294:cmsis/device/system_stm32f10x.c ****   *             in voltage and temperature.   
 295:cmsis/device/system_stm32f10x.c ****   *    
 296:cmsis/device/system_stm32f10x.c ****   *         (**) HSE_VALUE is a constant defined in stm32f1xx.h file (default value
 297:cmsis/device/system_stm32f10x.c ****   *              8 MHz or 25 MHz, depedning on the product used), user has to ensure
 298:cmsis/device/system_stm32f10x.c ****   *              that HSE_VALUE is same as the real frequency of the crystal used.
 299:cmsis/device/system_stm32f10x.c ****   *              Otherwise, this function may have wrong result.
 300:cmsis/device/system_stm32f10x.c ****   *                
 301:cmsis/device/system_stm32f10x.c ****   *         - The result of this function could be not correct when using fractional
 302:cmsis/device/system_stm32f10x.c ****   *           value for HSE crystal.
 303:cmsis/device/system_stm32f10x.c ****   * @param  None
 304:cmsis/device/system_stm32f10x.c ****   * @retval None
 305:cmsis/device/system_stm32f10x.c ****   */
 306:cmsis/device/system_stm32f10x.c **** void SystemCoreClockUpdate (void)
 307:cmsis/device/system_stm32f10x.c **** {
 168              		.loc 1 307 0
 169              		.cfi_startproc
 170              		@ args = 0, pretend = 0, frame = 16
 171              		@ frame_needed = 1, uses_anonymous_args = 0
 172              		@ link register save eliminated.
 173 00ac 80B4     		push	{r7}	@
 174              	.LCFI2:
 175              		.cfi_def_cfa_offset 4
 176              		.cfi_offset 7, -4
 177 00ae 85B0     		sub	sp, sp, #20	@,,
 178              	.LCFI3:
 179              		.cfi_def_cfa_offset 24
 180 00b0 00AF     		add	r7, sp, #0	@,,
 181              	.LCFI4:
 182              		.cfi_def_cfa_register 7
 308:cmsis/device/system_stm32f10x.c ****   uint32_t tmp = 0, pllmull = 0, pllsource = 0;
 183              		.loc 1 308 0
 184 00b2 4FF00003 		mov	r3, #0	@ tmp155,
 185 00b6 FB60     		str	r3, [r7, #12]	@ tmp155, tmp
 186 00b8 4FF00003 		mov	r3, #0	@ tmp156,
 187 00bc BB60     		str	r3, [r7, #8]	@ tmp156, pllmull
 188 00be 4FF00003 		mov	r3, #0	@ tmp157,
 189 00c2 7B60     		str	r3, [r7, #4]	@ tmp157, pllsource
 309:cmsis/device/system_stm32f10x.c **** 
 310:cmsis/device/system_stm32f10x.c **** #ifdef  STM32F10X_CL
 311:cmsis/device/system_stm32f10x.c ****   uint32_t prediv1source = 0, prediv1factor = 0, prediv2factor = 0, pll2mull = 0;
 312:cmsis/device/system_stm32f10x.c **** #endif /* STM32F10X_CL */
 313:cmsis/device/system_stm32f10x.c **** 
 314:cmsis/device/system_stm32f10x.c **** #if defined (STM32F10X_LD_VL) || defined (STM32F10X_MD_VL) || (defined STM32F10X_HD_VL)
 315:cmsis/device/system_stm32f10x.c ****   uint32_t prediv1factor = 0;
 316:cmsis/device/system_stm32f10x.c **** #endif /* STM32F10X_LD_VL or STM32F10X_MD_VL or STM32F10X_HD_VL */
 317:cmsis/device/system_stm32f10x.c ****     
 318:cmsis/device/system_stm32f10x.c ****   /* Get SYSCLK source -------------------------------------------------------*/
 319:cmsis/device/system_stm32f10x.c ****   tmp = RCC->CFGR & RCC_CFGR_SWS;
 190              		.loc 1 319 0
 191 00c4 4FF48053 		mov	r3, #4096	@ D.5726,
 192 00c8 C4F20203 		movt	r3, 16386	@ D.5726,
 193 00cc 5B68     		ldr	r3, [r3, #4]	@ tmp158,
 194 00ce 03F00C03 		and	r3, r3, #12	@ tmp159, D.5727,
ARM GAS  /tmp/ccBweOod.s 			page 10


 195 00d2 FB60     		str	r3, [r7, #12]	@ tmp159, tmp
 320:cmsis/device/system_stm32f10x.c ****   
 321:cmsis/device/system_stm32f10x.c ****   switch (tmp)
 196              		.loc 1 321 0
 197 00d4 FB68     		ldr	r3, [r7, #12]	@ tmp160, tmp
 198 00d6 042B     		cmp	r3, #4	@ tmp160,
 199 00d8 0DD0     		beq	.L5	@,
 200 00da 082B     		cmp	r3, #8	@ tmp160,
 201 00dc 15D0     		beq	.L6	@,
 202 00de 002B     		cmp	r3, #0	@ tmp160,
 203 00e0 5CD1     		bne	.L11	@,
 204              	.L4:
 322:cmsis/device/system_stm32f10x.c ****   {
 323:cmsis/device/system_stm32f10x.c ****     case 0x00:  /* HSI used as system clock */
 324:cmsis/device/system_stm32f10x.c ****       SystemCoreClock = HSI_VALUE;
 205              		.loc 1 324 0
 206 00e2 40F20003 		movw	r3, #:lower16:SystemCoreClock	@ tmp161,
 207 00e6 C0F20003 		movt	r3, #:upper16:SystemCoreClock	@ tmp161,
 208 00ea 4FF49052 		mov	r2, #4608	@ tmp162,
 209 00ee C0F27A02 		movt	r2, 122	@ tmp162,
 210 00f2 1A60     		str	r2, [r3, #0]	@ tmp162, SystemCoreClock
 325:cmsis/device/system_stm32f10x.c ****       break;
 211              		.loc 1 325 0
 212 00f4 5CE0     		b	.L7	@
 213              	.L5:
 326:cmsis/device/system_stm32f10x.c ****     case 0x04:  /* HSE used as system clock */
 327:cmsis/device/system_stm32f10x.c ****       SystemCoreClock = HSE_VALUE;
 214              		.loc 1 327 0
 215 00f6 40F20003 		movw	r3, #:lower16:SystemCoreClock	@ tmp163,
 216 00fa C0F20003 		movt	r3, #:upper16:SystemCoreClock	@ tmp163,
 217 00fe 4FF49052 		mov	r2, #4608	@ tmp164,
 218 0102 C0F27A02 		movt	r2, 122	@ tmp164,
 219 0106 1A60     		str	r2, [r3, #0]	@ tmp164, SystemCoreClock
 328:cmsis/device/system_stm32f10x.c ****       break;
 220              		.loc 1 328 0
 221 0108 52E0     		b	.L7	@
 222              	.L6:
 329:cmsis/device/system_stm32f10x.c ****     case 0x08:  /* PLL used as system clock */
 330:cmsis/device/system_stm32f10x.c **** 
 331:cmsis/device/system_stm32f10x.c ****       /* Get PLL clock source and multiplication factor ----------------------*/
 332:cmsis/device/system_stm32f10x.c ****       pllmull = RCC->CFGR & RCC_CFGR_PLLMULL;
 223              		.loc 1 332 0
 224 010a 4FF48053 		mov	r3, #4096	@ D.5728,
 225 010e C4F20203 		movt	r3, 16386	@ D.5728,
 226 0112 5B68     		ldr	r3, [r3, #4]	@ tmp165,
 227 0114 03F47013 		and	r3, r3, #3932160	@ tmp166, D.5729,
 228 0118 BB60     		str	r3, [r7, #8]	@ tmp166, pllmull
 333:cmsis/device/system_stm32f10x.c ****       pllsource = RCC->CFGR & RCC_CFGR_PLLSRC;
 229              		.loc 1 333 0
 230 011a 4FF48053 		mov	r3, #4096	@ D.5730,
 231 011e C4F20203 		movt	r3, 16386	@ D.5730,
 232 0122 5B68     		ldr	r3, [r3, #4]	@ tmp167,
 233 0124 03F48033 		and	r3, r3, #65536	@ tmp168, D.5731,
 234 0128 7B60     		str	r3, [r7, #4]	@ tmp168, pllsource
 334:cmsis/device/system_stm32f10x.c ****       
 335:cmsis/device/system_stm32f10x.c **** #ifndef STM32F10X_CL      
 336:cmsis/device/system_stm32f10x.c ****       pllmull = ( pllmull >> 18) + 2;
ARM GAS  /tmp/ccBweOod.s 			page 11


 235              		.loc 1 336 0
 236 012a BB68     		ldr	r3, [r7, #8]	@ tmp169, pllmull
 237 012c 4FEA9343 		lsr	r3, r3, #18	@ D.5732, tmp169,
 238 0130 03F10203 		add	r3, r3, #2	@ tmp170, D.5732,
 239 0134 BB60     		str	r3, [r7, #8]	@ tmp170, pllmull
 337:cmsis/device/system_stm32f10x.c ****       
 338:cmsis/device/system_stm32f10x.c ****       if (pllsource == 0x00)
 240              		.loc 1 338 0
 241 0136 7B68     		ldr	r3, [r7, #4]	@ tmp171, pllsource
 242 0138 002B     		cmp	r3, #0	@ tmp171,
 243 013a 0CD1     		bne	.L8	@,
 339:cmsis/device/system_stm32f10x.c ****       {
 340:cmsis/device/system_stm32f10x.c ****         /* HSI oscillator clock divided by 2 selected as PLL clock entry */
 341:cmsis/device/system_stm32f10x.c ****         SystemCoreClock = (HSI_VALUE >> 1) * pllmull;
 244              		.loc 1 341 0
 245 013c BA68     		ldr	r2, [r7, #8]	@ tmp172, pllmull
 246 013e 4FF41063 		mov	r3, #2304	@ tmp173,
 247 0142 C0F23D03 		movt	r3, 61	@ tmp173,
 248 0146 03FB02F2 		mul	r2, r3, r2	@ SystemCoreClock.6, tmp173, tmp172
 249 014a 40F20003 		movw	r3, #:lower16:SystemCoreClock	@ tmp174,
 250 014e C0F20003 		movt	r3, #:upper16:SystemCoreClock	@ tmp174,
 251 0152 1A60     		str	r2, [r3, #0]	@ SystemCoreClock.6, SystemCoreClock
 342:cmsis/device/system_stm32f10x.c ****       }
 343:cmsis/device/system_stm32f10x.c ****       else
 344:cmsis/device/system_stm32f10x.c ****       {
 345:cmsis/device/system_stm32f10x.c ****  #if defined (STM32F10X_LD_VL) || defined (STM32F10X_MD_VL) || (defined STM32F10X_HD_VL)
 346:cmsis/device/system_stm32f10x.c ****        prediv1factor = (RCC->CFGR2 & RCC_CFGR2_PREDIV1) + 1;
 347:cmsis/device/system_stm32f10x.c ****        /* HSE oscillator clock selected as PREDIV1 clock entry */
 348:cmsis/device/system_stm32f10x.c ****        SystemCoreClock = (HSE_VALUE / prediv1factor) * pllmull; 
 349:cmsis/device/system_stm32f10x.c ****  #else
 350:cmsis/device/system_stm32f10x.c ****         /* HSE selected as PLL clock entry */
 351:cmsis/device/system_stm32f10x.c ****         if ((RCC->CFGR & RCC_CFGR_PLLXTPRE) != (uint32_t)RESET)
 352:cmsis/device/system_stm32f10x.c ****         {/* HSE oscillator clock divided by 2 */
 353:cmsis/device/system_stm32f10x.c ****           SystemCoreClock = (HSE_VALUE >> 1) * pllmull;
 354:cmsis/device/system_stm32f10x.c ****         }
 355:cmsis/device/system_stm32f10x.c ****         else
 356:cmsis/device/system_stm32f10x.c ****         {
 357:cmsis/device/system_stm32f10x.c ****           SystemCoreClock = HSE_VALUE * pllmull;
 358:cmsis/device/system_stm32f10x.c ****         }
 359:cmsis/device/system_stm32f10x.c ****  #endif
 360:cmsis/device/system_stm32f10x.c ****       }
 361:cmsis/device/system_stm32f10x.c **** #else
 362:cmsis/device/system_stm32f10x.c ****       pllmull = pllmull >> 18;
 363:cmsis/device/system_stm32f10x.c ****       
 364:cmsis/device/system_stm32f10x.c ****       if (pllmull != 0x0D)
 365:cmsis/device/system_stm32f10x.c ****       {
 366:cmsis/device/system_stm32f10x.c ****          pllmull += 2;
 367:cmsis/device/system_stm32f10x.c ****       }
 368:cmsis/device/system_stm32f10x.c ****       else
 369:cmsis/device/system_stm32f10x.c ****       { /* PLL multiplication factor = PLL input clock * 6.5 */
 370:cmsis/device/system_stm32f10x.c ****         pllmull = 13 / 2; 
 371:cmsis/device/system_stm32f10x.c ****       }
 372:cmsis/device/system_stm32f10x.c ****             
 373:cmsis/device/system_stm32f10x.c ****       if (pllsource == 0x00)
 374:cmsis/device/system_stm32f10x.c ****       {
 375:cmsis/device/system_stm32f10x.c ****         /* HSI oscillator clock divided by 2 selected as PLL clock entry */
 376:cmsis/device/system_stm32f10x.c ****         SystemCoreClock = (HSI_VALUE >> 1) * pllmull;
ARM GAS  /tmp/ccBweOod.s 			page 12


 377:cmsis/device/system_stm32f10x.c ****       }
 378:cmsis/device/system_stm32f10x.c ****       else
 379:cmsis/device/system_stm32f10x.c ****       {/* PREDIV1 selected as PLL clock entry */
 380:cmsis/device/system_stm32f10x.c ****         
 381:cmsis/device/system_stm32f10x.c ****         /* Get PREDIV1 clock source and division factor */
 382:cmsis/device/system_stm32f10x.c ****         prediv1source = RCC->CFGR2 & RCC_CFGR2_PREDIV1SRC;
 383:cmsis/device/system_stm32f10x.c ****         prediv1factor = (RCC->CFGR2 & RCC_CFGR2_PREDIV1) + 1;
 384:cmsis/device/system_stm32f10x.c ****         
 385:cmsis/device/system_stm32f10x.c ****         if (prediv1source == 0)
 386:cmsis/device/system_stm32f10x.c ****         { 
 387:cmsis/device/system_stm32f10x.c ****           /* HSE oscillator clock selected as PREDIV1 clock entry */
 388:cmsis/device/system_stm32f10x.c ****           SystemCoreClock = (HSE_VALUE / prediv1factor) * pllmull;          
 389:cmsis/device/system_stm32f10x.c ****         }
 390:cmsis/device/system_stm32f10x.c ****         else
 391:cmsis/device/system_stm32f10x.c ****         {/* PLL2 clock selected as PREDIV1 clock entry */
 392:cmsis/device/system_stm32f10x.c ****           
 393:cmsis/device/system_stm32f10x.c ****           /* Get PREDIV2 division factor and PLL2 multiplication factor */
 394:cmsis/device/system_stm32f10x.c ****           prediv2factor = ((RCC->CFGR2 & RCC_CFGR2_PREDIV2) >> 4) + 1;
 395:cmsis/device/system_stm32f10x.c ****           pll2mull = ((RCC->CFGR2 & RCC_CFGR2_PLL2MUL) >> 8 ) + 2; 
 396:cmsis/device/system_stm32f10x.c ****           SystemCoreClock = (((HSE_VALUE / prediv2factor) * pll2mull) / prediv1factor) * pllmull;  
 397:cmsis/device/system_stm32f10x.c ****         }
 398:cmsis/device/system_stm32f10x.c ****       }
 399:cmsis/device/system_stm32f10x.c **** #endif /* STM32F10X_CL */ 
 400:cmsis/device/system_stm32f10x.c ****       break;
 252              		.loc 1 400 0
 253 0154 2CE0     		b	.L7	@
 254              	.L8:
 351:cmsis/device/system_stm32f10x.c ****         if ((RCC->CFGR & RCC_CFGR_PLLXTPRE) != (uint32_t)RESET)
 255              		.loc 1 351 0
 256 0156 4FF48053 		mov	r3, #4096	@ D.5737,
 257 015a C4F20203 		movt	r3, 16386	@ D.5737,
 258 015e 5B68     		ldr	r3, [r3, #4]	@ tmp175,
 259 0160 03F40033 		and	r3, r3, #131072	@ D.5739, D.5738,
 260 0164 002B     		cmp	r3, #0	@ D.5739,
 261 0166 0CD0     		beq	.L10	@,
 353:cmsis/device/system_stm32f10x.c ****           SystemCoreClock = (HSE_VALUE >> 1) * pllmull;
 262              		.loc 1 353 0
 263 0168 BA68     		ldr	r2, [r7, #8]	@ tmp176, pllmull
 264 016a 4FF41063 		mov	r3, #2304	@ tmp177,
 265 016e C0F23D03 		movt	r3, 61	@ tmp177,
 266 0172 03FB02F2 		mul	r2, r3, r2	@ SystemCoreClock.7, tmp177, tmp176
 267 0176 40F20003 		movw	r3, #:lower16:SystemCoreClock	@ tmp178,
 268 017a C0F20003 		movt	r3, #:upper16:SystemCoreClock	@ tmp178,
 269 017e 1A60     		str	r2, [r3, #0]	@ SystemCoreClock.7, SystemCoreClock
 270              		.loc 1 400 0
 271 0180 16E0     		b	.L7	@
 272              	.L10:
 357:cmsis/device/system_stm32f10x.c ****           SystemCoreClock = HSE_VALUE * pllmull;
 273              		.loc 1 357 0
 274 0182 BA68     		ldr	r2, [r7, #8]	@ tmp179, pllmull
 275 0184 4FF49053 		mov	r3, #4608	@ tmp180,
 276 0188 C0F27A03 		movt	r3, 122	@ tmp180,
 277 018c 03FB02F2 		mul	r2, r3, r2	@ SystemCoreClock.8, tmp180, tmp179
 278 0190 40F20003 		movw	r3, #:lower16:SystemCoreClock	@ tmp181,
 279 0194 C0F20003 		movt	r3, #:upper16:SystemCoreClock	@ tmp181,
 280 0198 1A60     		str	r2, [r3, #0]	@ SystemCoreClock.8, SystemCoreClock
 281              		.loc 1 400 0
ARM GAS  /tmp/ccBweOod.s 			page 13


 282 019a 09E0     		b	.L7	@
 283              	.L11:
 401:cmsis/device/system_stm32f10x.c **** 
 402:cmsis/device/system_stm32f10x.c ****     default:
 403:cmsis/device/system_stm32f10x.c ****       SystemCoreClock = HSI_VALUE;
 284              		.loc 1 403 0
 285 019c 40F20003 		movw	r3, #:lower16:SystemCoreClock	@ tmp182,
 286 01a0 C0F20003 		movt	r3, #:upper16:SystemCoreClock	@ tmp182,
 287 01a4 4FF49052 		mov	r2, #4608	@ tmp183,
 288 01a8 C0F27A02 		movt	r2, 122	@ tmp183,
 289 01ac 1A60     		str	r2, [r3, #0]	@ tmp183, SystemCoreClock
 404:cmsis/device/system_stm32f10x.c ****       break;
 290              		.loc 1 404 0
 291 01ae 00BF     		nop
 292              	.L7:
 405:cmsis/device/system_stm32f10x.c ****   }
 406:cmsis/device/system_stm32f10x.c ****   
 407:cmsis/device/system_stm32f10x.c ****   /* Compute HCLK clock frequency ----------------*/
 408:cmsis/device/system_stm32f10x.c ****   /* Get HCLK prescaler */
 409:cmsis/device/system_stm32f10x.c ****   tmp = AHBPrescTable[((RCC->CFGR & RCC_CFGR_HPRE) >> 4)];
 293              		.loc 1 409 0
 294 01b0 4FF48053 		mov	r3, #4096	@ D.5745,
 295 01b4 C4F20203 		movt	r3, 16386	@ D.5745,
 296 01b8 5B68     		ldr	r3, [r3, #4]	@ tmp184,
 297 01ba 03F0F003 		and	r3, r3, #240	@ D.5747, D.5746,
 298 01be 4FEA1312 		lsr	r2, r3, #4	@ D.5748, D.5747,
 299 01c2 40F20003 		movw	r3, #:lower16:AHBPrescTable	@ tmp185,
 300 01c6 C0F20003 		movt	r3, #:upper16:AHBPrescTable	@ tmp185,
 301 01ca 9B5C     		ldrb	r3, [r3, r2]	@ tmp186,* D.5748
 302 01cc DBB2     		uxtb	r3, r3	@ D.5749, tmp186
 303 01ce FB60     		str	r3, [r7, #12]	@ D.5749, tmp
 410:cmsis/device/system_stm32f10x.c ****   /* HCLK clock frequency */
 411:cmsis/device/system_stm32f10x.c ****   SystemCoreClock >>= tmp;  
 304              		.loc 1 411 0
 305 01d0 40F20003 		movw	r3, #:lower16:SystemCoreClock	@ tmp187,
 306 01d4 C0F20003 		movt	r3, #:upper16:SystemCoreClock	@ tmp187,
 307 01d8 1A68     		ldr	r2, [r3, #0]	@ SystemCoreClock.9, SystemCoreClock
 308 01da FB68     		ldr	r3, [r7, #12]	@ tmp.10, tmp
 309 01dc 22FA03F2 		lsr	r2, r2, r3	@ SystemCoreClock.11, SystemCoreClock.9, tmp.10
 310 01e0 40F20003 		movw	r3, #:lower16:SystemCoreClock	@ tmp188,
 311 01e4 C0F20003 		movt	r3, #:upper16:SystemCoreClock	@ tmp188,
 312 01e8 1A60     		str	r2, [r3, #0]	@ SystemCoreClock.11, SystemCoreClock
 412:cmsis/device/system_stm32f10x.c **** }
 313              		.loc 1 412 0
 314 01ea 07F11407 		add	r7, r7, #20	@,,
 315 01ee BD46     		mov	sp, r7
 316 01f0 80BC     		pop	{r7}
 317 01f2 7047     		bx	lr
 318              		.cfi_endproc
 319              	.LFE56:
 320              		.size	SystemCoreClockUpdate, .-SystemCoreClockUpdate
 321              		.align	2
 322              		.thumb
 323              		.thumb_func
 324              		.type	SetSysClock, %function
 325              	SetSysClock:
 326              	.LFB57:
ARM GAS  /tmp/ccBweOod.s 			page 14


 413:cmsis/device/system_stm32f10x.c **** 
 414:cmsis/device/system_stm32f10x.c **** /**
 415:cmsis/device/system_stm32f10x.c ****   * @brief  Configures the System clock frequency, HCLK, PCLK2 and PCLK1 prescalers.
 416:cmsis/device/system_stm32f10x.c ****   * @param  None
 417:cmsis/device/system_stm32f10x.c ****   * @retval None
 418:cmsis/device/system_stm32f10x.c ****   */
 419:cmsis/device/system_stm32f10x.c **** static void SetSysClock(void)
 420:cmsis/device/system_stm32f10x.c **** {
 327              		.loc 1 420 0
 328              		.cfi_startproc
 329              		@ args = 0, pretend = 0, frame = 0
 330              		@ frame_needed = 1, uses_anonymous_args = 0
 331 01f4 80B5     		push	{r7, lr}	@
 332              	.LCFI5:
 333              		.cfi_def_cfa_offset 8
 334              		.cfi_offset 14, -4
 335              		.cfi_offset 7, -8
 336 01f6 00AF     		add	r7, sp, #0	@,,
 337              	.LCFI6:
 338              		.cfi_def_cfa_register 7
 421:cmsis/device/system_stm32f10x.c **** #ifdef SYSCLK_FREQ_HSE
 422:cmsis/device/system_stm32f10x.c ****   SetSysClockToHSE();
 423:cmsis/device/system_stm32f10x.c **** #elif defined SYSCLK_FREQ_24MHz
 424:cmsis/device/system_stm32f10x.c ****   SetSysClockTo24();
 425:cmsis/device/system_stm32f10x.c **** #elif defined SYSCLK_FREQ_36MHz
 426:cmsis/device/system_stm32f10x.c ****   SetSysClockTo36();
 427:cmsis/device/system_stm32f10x.c **** #elif defined SYSCLK_FREQ_48MHz
 428:cmsis/device/system_stm32f10x.c ****   SetSysClockTo48();
 429:cmsis/device/system_stm32f10x.c **** #elif defined SYSCLK_FREQ_56MHz
 430:cmsis/device/system_stm32f10x.c ****   SetSysClockTo56();  
 431:cmsis/device/system_stm32f10x.c **** #elif defined SYSCLK_FREQ_72MHz
 432:cmsis/device/system_stm32f10x.c ****   SetSysClockTo72();
 339              		.loc 1 432 0
 340 01f8 00F002F8 		bl	SetSysClockTo72	@
 433:cmsis/device/system_stm32f10x.c **** #endif
 434:cmsis/device/system_stm32f10x.c ****  
 435:cmsis/device/system_stm32f10x.c ****  /* If none of the define above is enabled, the HSI is used as System clock
 436:cmsis/device/system_stm32f10x.c ****     source (default after reset) */ 
 437:cmsis/device/system_stm32f10x.c **** }
 341              		.loc 1 437 0
 342 01fc 80BD     		pop	{r7, pc}	@
 343              		.cfi_endproc
 344              	.LFE57:
 345              		.size	SetSysClock, .-SetSysClock
 346 01fe 00BF     		.align	2
 347              		.thumb
 348              		.thumb_func
 349              		.type	SetSysClockTo72, %function
 350              	SetSysClockTo72:
 351              	.LFB58:
 438:cmsis/device/system_stm32f10x.c **** 
 439:cmsis/device/system_stm32f10x.c **** /**
 440:cmsis/device/system_stm32f10x.c ****   * @brief  Setup the external memory controller. Called in startup_stm32f10x.s 
 441:cmsis/device/system_stm32f10x.c ****   *          before jump to __main
 442:cmsis/device/system_stm32f10x.c ****   * @param  None
 443:cmsis/device/system_stm32f10x.c ****   * @retval None
 444:cmsis/device/system_stm32f10x.c ****   */ 
ARM GAS  /tmp/ccBweOod.s 			page 15


 445:cmsis/device/system_stm32f10x.c **** #ifdef DATA_IN_ExtSRAM
 446:cmsis/device/system_stm32f10x.c **** /**
 447:cmsis/device/system_stm32f10x.c ****   * @brief  Setup the external memory controller. 
 448:cmsis/device/system_stm32f10x.c ****   *         Called in startup_stm32f10x_xx.s/.c before jump to main.
 449:cmsis/device/system_stm32f10x.c ****   * 	      This function configures the external SRAM mounted on STM3210E-EVAL
 450:cmsis/device/system_stm32f10x.c ****   *         board (STM32 High density devices). This SRAM will be used as program
 451:cmsis/device/system_stm32f10x.c ****   *         data memory (including heap and stack).
 452:cmsis/device/system_stm32f10x.c ****   * @param  None
 453:cmsis/device/system_stm32f10x.c ****   * @retval None
 454:cmsis/device/system_stm32f10x.c ****   */ 
 455:cmsis/device/system_stm32f10x.c **** void SystemInit_ExtMemCtl(void) 
 456:cmsis/device/system_stm32f10x.c **** {
 457:cmsis/device/system_stm32f10x.c **** /*!< FSMC Bank1 NOR/SRAM3 is used for the STM3210E-EVAL, if another Bank is 
 458:cmsis/device/system_stm32f10x.c ****   required, then adjust the Register Addresses */
 459:cmsis/device/system_stm32f10x.c **** 
 460:cmsis/device/system_stm32f10x.c ****   /* Enable FSMC clock */
 461:cmsis/device/system_stm32f10x.c ****   RCC->AHBENR = 0x00000114;
 462:cmsis/device/system_stm32f10x.c ****   
 463:cmsis/device/system_stm32f10x.c ****   /* Enable GPIOD, GPIOE, GPIOF and GPIOG clocks */  
 464:cmsis/device/system_stm32f10x.c ****   RCC->APB2ENR = 0x000001E0;
 465:cmsis/device/system_stm32f10x.c ****   
 466:cmsis/device/system_stm32f10x.c **** /* ---------------  SRAM Data lines, NOE and NWE configuration ---------------*/
 467:cmsis/device/system_stm32f10x.c **** /*----------------  SRAM Address lines configuration -------------------------*/
 468:cmsis/device/system_stm32f10x.c **** /*----------------  NOE and NWE configuration --------------------------------*/  
 469:cmsis/device/system_stm32f10x.c **** /*----------------  NE3 configuration ----------------------------------------*/
 470:cmsis/device/system_stm32f10x.c **** /*----------------  NBL0, NBL1 configuration ---------------------------------*/
 471:cmsis/device/system_stm32f10x.c ****   
 472:cmsis/device/system_stm32f10x.c ****   GPIOD->CRL = 0x44BB44BB;  
 473:cmsis/device/system_stm32f10x.c ****   GPIOD->CRH = 0xBBBBBBBB;
 474:cmsis/device/system_stm32f10x.c **** 
 475:cmsis/device/system_stm32f10x.c ****   GPIOE->CRL = 0xB44444BB;  
 476:cmsis/device/system_stm32f10x.c ****   GPIOE->CRH = 0xBBBBBBBB;
 477:cmsis/device/system_stm32f10x.c **** 
 478:cmsis/device/system_stm32f10x.c ****   GPIOF->CRL = 0x44BBBBBB;  
 479:cmsis/device/system_stm32f10x.c ****   GPIOF->CRH = 0xBBBB4444;
 480:cmsis/device/system_stm32f10x.c **** 
 481:cmsis/device/system_stm32f10x.c ****   GPIOG->CRL = 0x44BBBBBB;  
 482:cmsis/device/system_stm32f10x.c ****   GPIOG->CRH = 0x44444B44;
 483:cmsis/device/system_stm32f10x.c ****    
 484:cmsis/device/system_stm32f10x.c **** /*----------------  FSMC Configuration ---------------------------------------*/  
 485:cmsis/device/system_stm32f10x.c **** /*----------------  Enable FSMC Bank1_SRAM Bank ------------------------------*/
 486:cmsis/device/system_stm32f10x.c ****   
 487:cmsis/device/system_stm32f10x.c ****   FSMC_Bank1->BTCR[4] = 0x00001011;
 488:cmsis/device/system_stm32f10x.c ****   FSMC_Bank1->BTCR[5] = 0x00000200;
 489:cmsis/device/system_stm32f10x.c **** }
 490:cmsis/device/system_stm32f10x.c **** #endif /* DATA_IN_ExtSRAM */
 491:cmsis/device/system_stm32f10x.c **** 
 492:cmsis/device/system_stm32f10x.c **** #ifdef SYSCLK_FREQ_HSE
 493:cmsis/device/system_stm32f10x.c **** /**
 494:cmsis/device/system_stm32f10x.c ****   * @brief  Selects HSE as System clock source and configure HCLK, PCLK2
 495:cmsis/device/system_stm32f10x.c ****   *         and PCLK1 prescalers.
 496:cmsis/device/system_stm32f10x.c ****   * @note   This function should be used only after reset.
 497:cmsis/device/system_stm32f10x.c ****   * @param  None
 498:cmsis/device/system_stm32f10x.c ****   * @retval None
 499:cmsis/device/system_stm32f10x.c ****   */
 500:cmsis/device/system_stm32f10x.c **** static void SetSysClockToHSE(void)
 501:cmsis/device/system_stm32f10x.c **** {
ARM GAS  /tmp/ccBweOod.s 			page 16


 502:cmsis/device/system_stm32f10x.c ****   __IO uint32_t StartUpCounter = 0, HSEStatus = 0;
 503:cmsis/device/system_stm32f10x.c ****   
 504:cmsis/device/system_stm32f10x.c ****   /* SYSCLK, HCLK, PCLK2 and PCLK1 configuration ---------------------------*/    
 505:cmsis/device/system_stm32f10x.c ****   /* Enable HSE */    
 506:cmsis/device/system_stm32f10x.c ****   RCC->CR |= ((uint32_t)RCC_CR_HSEON);
 507:cmsis/device/system_stm32f10x.c ****  
 508:cmsis/device/system_stm32f10x.c ****   /* Wait till HSE is ready and if Time out is reached exit */
 509:cmsis/device/system_stm32f10x.c ****   do
 510:cmsis/device/system_stm32f10x.c ****   {
 511:cmsis/device/system_stm32f10x.c ****     HSEStatus = RCC->CR & RCC_CR_HSERDY;
 512:cmsis/device/system_stm32f10x.c ****     StartUpCounter++;  
 513:cmsis/device/system_stm32f10x.c ****   } while((HSEStatus == 0) && (StartUpCounter != HSE_STARTUP_TIMEOUT));
 514:cmsis/device/system_stm32f10x.c **** 
 515:cmsis/device/system_stm32f10x.c ****   if ((RCC->CR & RCC_CR_HSERDY) != RESET)
 516:cmsis/device/system_stm32f10x.c ****   {
 517:cmsis/device/system_stm32f10x.c ****     HSEStatus = (uint32_t)0x01;
 518:cmsis/device/system_stm32f10x.c ****   }
 519:cmsis/device/system_stm32f10x.c ****   else
 520:cmsis/device/system_stm32f10x.c ****   {
 521:cmsis/device/system_stm32f10x.c ****     HSEStatus = (uint32_t)0x00;
 522:cmsis/device/system_stm32f10x.c ****   }  
 523:cmsis/device/system_stm32f10x.c **** 
 524:cmsis/device/system_stm32f10x.c ****   if (HSEStatus == (uint32_t)0x01)
 525:cmsis/device/system_stm32f10x.c ****   {
 526:cmsis/device/system_stm32f10x.c **** 
 527:cmsis/device/system_stm32f10x.c **** #if !defined STM32F10X_LD_VL && !defined STM32F10X_MD_VL && !defined STM32F10X_HD_VL
 528:cmsis/device/system_stm32f10x.c ****     /* Enable Prefetch Buffer */
 529:cmsis/device/system_stm32f10x.c ****     FLASH->ACR |= FLASH_ACR_PRFTBE;
 530:cmsis/device/system_stm32f10x.c **** 
 531:cmsis/device/system_stm32f10x.c ****     /* Flash 0 wait state */
 532:cmsis/device/system_stm32f10x.c ****     FLASH->ACR &= (uint32_t)((uint32_t)~FLASH_ACR_LATENCY);
 533:cmsis/device/system_stm32f10x.c **** 
 534:cmsis/device/system_stm32f10x.c **** #ifndef STM32F10X_CL
 535:cmsis/device/system_stm32f10x.c ****     FLASH->ACR |= (uint32_t)FLASH_ACR_LATENCY_0;
 536:cmsis/device/system_stm32f10x.c **** #else
 537:cmsis/device/system_stm32f10x.c ****     if (HSE_VALUE <= 24000000)
 538:cmsis/device/system_stm32f10x.c **** 	{
 539:cmsis/device/system_stm32f10x.c ****       FLASH->ACR |= (uint32_t)FLASH_ACR_LATENCY_0;
 540:cmsis/device/system_stm32f10x.c **** 	}
 541:cmsis/device/system_stm32f10x.c **** 	else
 542:cmsis/device/system_stm32f10x.c **** 	{
 543:cmsis/device/system_stm32f10x.c ****       FLASH->ACR |= (uint32_t)FLASH_ACR_LATENCY_1;
 544:cmsis/device/system_stm32f10x.c **** 	}
 545:cmsis/device/system_stm32f10x.c **** #endif /* STM32F10X_CL */
 546:cmsis/device/system_stm32f10x.c **** #endif
 547:cmsis/device/system_stm32f10x.c ****  
 548:cmsis/device/system_stm32f10x.c ****     /* HCLK = SYSCLK */
 549:cmsis/device/system_stm32f10x.c ****     RCC->CFGR |= (uint32_t)RCC_CFGR_HPRE_DIV1;
 550:cmsis/device/system_stm32f10x.c ****       
 551:cmsis/device/system_stm32f10x.c ****     /* PCLK2 = HCLK */
 552:cmsis/device/system_stm32f10x.c ****     RCC->CFGR |= (uint32_t)RCC_CFGR_PPRE2_DIV1;
 553:cmsis/device/system_stm32f10x.c ****     
 554:cmsis/device/system_stm32f10x.c ****     /* PCLK1 = HCLK */
 555:cmsis/device/system_stm32f10x.c ****     RCC->CFGR |= (uint32_t)RCC_CFGR_PPRE1_DIV1;
 556:cmsis/device/system_stm32f10x.c ****     
 557:cmsis/device/system_stm32f10x.c ****     /* Select HSE as system clock source */
 558:cmsis/device/system_stm32f10x.c ****     RCC->CFGR &= (uint32_t)((uint32_t)~(RCC_CFGR_SW));
ARM GAS  /tmp/ccBweOod.s 			page 17


 559:cmsis/device/system_stm32f10x.c ****     RCC->CFGR |= (uint32_t)RCC_CFGR_SW_HSE;    
 560:cmsis/device/system_stm32f10x.c **** 
 561:cmsis/device/system_stm32f10x.c ****     /* Wait till HSE is used as system clock source */
 562:cmsis/device/system_stm32f10x.c ****     while ((RCC->CFGR & (uint32_t)RCC_CFGR_SWS) != (uint32_t)0x04)
 563:cmsis/device/system_stm32f10x.c ****     {
 564:cmsis/device/system_stm32f10x.c ****     }
 565:cmsis/device/system_stm32f10x.c ****   }
 566:cmsis/device/system_stm32f10x.c ****   else
 567:cmsis/device/system_stm32f10x.c ****   { /* If HSE fails to start-up, the application will have wrong clock 
 568:cmsis/device/system_stm32f10x.c ****          configuration. User can add here some code to deal with this error */
 569:cmsis/device/system_stm32f10x.c ****   }  
 570:cmsis/device/system_stm32f10x.c **** }
 571:cmsis/device/system_stm32f10x.c **** #elif defined SYSCLK_FREQ_24MHz
 572:cmsis/device/system_stm32f10x.c **** /**
 573:cmsis/device/system_stm32f10x.c ****   * @brief  Sets System clock frequency to 24MHz and configure HCLK, PCLK2 
 574:cmsis/device/system_stm32f10x.c ****   *         and PCLK1 prescalers.
 575:cmsis/device/system_stm32f10x.c ****   * @note   This function should be used only after reset.
 576:cmsis/device/system_stm32f10x.c ****   * @param  None
 577:cmsis/device/system_stm32f10x.c ****   * @retval None
 578:cmsis/device/system_stm32f10x.c ****   */
 579:cmsis/device/system_stm32f10x.c **** static void SetSysClockTo24(void)
 580:cmsis/device/system_stm32f10x.c **** {
 581:cmsis/device/system_stm32f10x.c ****   __IO uint32_t StartUpCounter = 0, HSEStatus = 0;
 582:cmsis/device/system_stm32f10x.c ****   
 583:cmsis/device/system_stm32f10x.c ****   /* SYSCLK, HCLK, PCLK2 and PCLK1 configuration ---------------------------*/    
 584:cmsis/device/system_stm32f10x.c ****   /* Enable HSE */    
 585:cmsis/device/system_stm32f10x.c ****   RCC->CR |= ((uint32_t)RCC_CR_HSEON);
 586:cmsis/device/system_stm32f10x.c ****  
 587:cmsis/device/system_stm32f10x.c ****   /* Wait till HSE is ready and if Time out is reached exit */
 588:cmsis/device/system_stm32f10x.c ****   do
 589:cmsis/device/system_stm32f10x.c ****   {
 590:cmsis/device/system_stm32f10x.c ****     HSEStatus = RCC->CR & RCC_CR_HSERDY;
 591:cmsis/device/system_stm32f10x.c ****     StartUpCounter++;  
 592:cmsis/device/system_stm32f10x.c ****   } while((HSEStatus == 0) && (StartUpCounter != HSE_STARTUP_TIMEOUT));
 593:cmsis/device/system_stm32f10x.c **** 
 594:cmsis/device/system_stm32f10x.c ****   if ((RCC->CR & RCC_CR_HSERDY) != RESET)
 595:cmsis/device/system_stm32f10x.c ****   {
 596:cmsis/device/system_stm32f10x.c ****     HSEStatus = (uint32_t)0x01;
 597:cmsis/device/system_stm32f10x.c ****   }
 598:cmsis/device/system_stm32f10x.c ****   else
 599:cmsis/device/system_stm32f10x.c ****   {
 600:cmsis/device/system_stm32f10x.c ****     HSEStatus = (uint32_t)0x00;
 601:cmsis/device/system_stm32f10x.c ****   }  
 602:cmsis/device/system_stm32f10x.c **** 
 603:cmsis/device/system_stm32f10x.c ****   if (HSEStatus == (uint32_t)0x01)
 604:cmsis/device/system_stm32f10x.c ****   {
 605:cmsis/device/system_stm32f10x.c **** #if !defined STM32F10X_LD_VL && !defined STM32F10X_MD_VL && !defined STM32F10X_HD_VL 
 606:cmsis/device/system_stm32f10x.c ****     /* Enable Prefetch Buffer */
 607:cmsis/device/system_stm32f10x.c ****     FLASH->ACR |= FLASH_ACR_PRFTBE;
 608:cmsis/device/system_stm32f10x.c **** 
 609:cmsis/device/system_stm32f10x.c ****     /* Flash 0 wait state */
 610:cmsis/device/system_stm32f10x.c ****     FLASH->ACR &= (uint32_t)((uint32_t)~FLASH_ACR_LATENCY);
 611:cmsis/device/system_stm32f10x.c ****     FLASH->ACR |= (uint32_t)FLASH_ACR_LATENCY_0;    
 612:cmsis/device/system_stm32f10x.c **** #endif
 613:cmsis/device/system_stm32f10x.c ****  
 614:cmsis/device/system_stm32f10x.c ****     /* HCLK = SYSCLK */
 615:cmsis/device/system_stm32f10x.c ****     RCC->CFGR |= (uint32_t)RCC_CFGR_HPRE_DIV1;
ARM GAS  /tmp/ccBweOod.s 			page 18


 616:cmsis/device/system_stm32f10x.c ****       
 617:cmsis/device/system_stm32f10x.c ****     /* PCLK2 = HCLK */
 618:cmsis/device/system_stm32f10x.c ****     RCC->CFGR |= (uint32_t)RCC_CFGR_PPRE2_DIV1;
 619:cmsis/device/system_stm32f10x.c ****     
 620:cmsis/device/system_stm32f10x.c ****     /* PCLK1 = HCLK */
 621:cmsis/device/system_stm32f10x.c ****     RCC->CFGR |= (uint32_t)RCC_CFGR_PPRE1_DIV1;
 622:cmsis/device/system_stm32f10x.c ****     
 623:cmsis/device/system_stm32f10x.c **** #ifdef STM32F10X_CL
 624:cmsis/device/system_stm32f10x.c ****     /* Configure PLLs ------------------------------------------------------*/
 625:cmsis/device/system_stm32f10x.c ****     /* PLL configuration: PLLCLK = PREDIV1 * 6 = 24 MHz */ 
 626:cmsis/device/system_stm32f10x.c ****     RCC->CFGR &= (uint32_t)~(RCC_CFGR_PLLXTPRE | RCC_CFGR_PLLSRC | RCC_CFGR_PLLMULL);
 627:cmsis/device/system_stm32f10x.c ****     RCC->CFGR |= (uint32_t)(RCC_CFGR_PLLXTPRE_PREDIV1 | RCC_CFGR_PLLSRC_PREDIV1 | 
 628:cmsis/device/system_stm32f10x.c ****                             RCC_CFGR_PLLMULL6); 
 629:cmsis/device/system_stm32f10x.c **** 
 630:cmsis/device/system_stm32f10x.c ****     /* PLL2 configuration: PLL2CLK = (HSE / 5) * 8 = 40 MHz */
 631:cmsis/device/system_stm32f10x.c ****     /* PREDIV1 configuration: PREDIV1CLK = PLL2 / 10 = 4 MHz */       
 632:cmsis/device/system_stm32f10x.c ****     RCC->CFGR2 &= (uint32_t)~(RCC_CFGR2_PREDIV2 | RCC_CFGR2_PLL2MUL |
 633:cmsis/device/system_stm32f10x.c ****                               RCC_CFGR2_PREDIV1 | RCC_CFGR2_PREDIV1SRC);
 634:cmsis/device/system_stm32f10x.c ****     RCC->CFGR2 |= (uint32_t)(RCC_CFGR2_PREDIV2_DIV5 | RCC_CFGR2_PLL2MUL8 |
 635:cmsis/device/system_stm32f10x.c ****                              RCC_CFGR2_PREDIV1SRC_PLL2 | RCC_CFGR2_PREDIV1_DIV10);
 636:cmsis/device/system_stm32f10x.c ****   
 637:cmsis/device/system_stm32f10x.c ****     /* Enable PLL2 */
 638:cmsis/device/system_stm32f10x.c ****     RCC->CR |= RCC_CR_PLL2ON;
 639:cmsis/device/system_stm32f10x.c ****     /* Wait till PLL2 is ready */
 640:cmsis/device/system_stm32f10x.c ****     while((RCC->CR & RCC_CR_PLL2RDY) == 0)
 641:cmsis/device/system_stm32f10x.c ****     {
 642:cmsis/device/system_stm32f10x.c ****     }   
 643:cmsis/device/system_stm32f10x.c **** #elif defined (STM32F10X_LD_VL) || defined (STM32F10X_MD_VL) || defined (STM32F10X_HD_VL)
 644:cmsis/device/system_stm32f10x.c ****     /*  PLL configuration:  = (HSE / 2) * 6 = 24 MHz */
 645:cmsis/device/system_stm32f10x.c ****     RCC->CFGR &= (uint32_t)((uint32_t)~(RCC_CFGR_PLLSRC | RCC_CFGR_PLLXTPRE | RCC_CFGR_PLLMULL));
 646:cmsis/device/system_stm32f10x.c ****     RCC->CFGR |= (uint32_t)(RCC_CFGR_PLLSRC_PREDIV1 | RCC_CFGR_PLLXTPRE_PREDIV1_Div2 | RCC_CFGR_PLL
 647:cmsis/device/system_stm32f10x.c **** #else    
 648:cmsis/device/system_stm32f10x.c ****     /*  PLL configuration:  = (HSE / 2) * 6 = 24 MHz */
 649:cmsis/device/system_stm32f10x.c ****     RCC->CFGR &= (uint32_t)((uint32_t)~(RCC_CFGR_PLLSRC | RCC_CFGR_PLLXTPRE | RCC_CFGR_PLLMULL));
 650:cmsis/device/system_stm32f10x.c ****     RCC->CFGR |= (uint32_t)(RCC_CFGR_PLLSRC_HSE | RCC_CFGR_PLLXTPRE_HSE_Div2 | RCC_CFGR_PLLMULL6);
 651:cmsis/device/system_stm32f10x.c **** #endif /* STM32F10X_CL */
 652:cmsis/device/system_stm32f10x.c **** 
 653:cmsis/device/system_stm32f10x.c ****     /* Enable PLL */
 654:cmsis/device/system_stm32f10x.c ****     RCC->CR |= RCC_CR_PLLON;
 655:cmsis/device/system_stm32f10x.c **** 
 656:cmsis/device/system_stm32f10x.c ****     /* Wait till PLL is ready */
 657:cmsis/device/system_stm32f10x.c ****     while((RCC->CR & RCC_CR_PLLRDY) == 0)
 658:cmsis/device/system_stm32f10x.c ****     {
 659:cmsis/device/system_stm32f10x.c ****     }
 660:cmsis/device/system_stm32f10x.c **** 
 661:cmsis/device/system_stm32f10x.c ****     /* Select PLL as system clock source */
 662:cmsis/device/system_stm32f10x.c ****     RCC->CFGR &= (uint32_t)((uint32_t)~(RCC_CFGR_SW));
 663:cmsis/device/system_stm32f10x.c ****     RCC->CFGR |= (uint32_t)RCC_CFGR_SW_PLL;    
 664:cmsis/device/system_stm32f10x.c **** 
 665:cmsis/device/system_stm32f10x.c ****     /* Wait till PLL is used as system clock source */
 666:cmsis/device/system_stm32f10x.c ****     while ((RCC->CFGR & (uint32_t)RCC_CFGR_SWS) != (uint32_t)0x08)
 667:cmsis/device/system_stm32f10x.c ****     {
 668:cmsis/device/system_stm32f10x.c ****     }
 669:cmsis/device/system_stm32f10x.c ****   }
 670:cmsis/device/system_stm32f10x.c ****   else
 671:cmsis/device/system_stm32f10x.c ****   { /* If HSE fails to start-up, the application will have wrong clock 
 672:cmsis/device/system_stm32f10x.c ****          configuration. User can add here some code to deal with this error */
ARM GAS  /tmp/ccBweOod.s 			page 19


 673:cmsis/device/system_stm32f10x.c ****   } 
 674:cmsis/device/system_stm32f10x.c **** }
 675:cmsis/device/system_stm32f10x.c **** #elif defined SYSCLK_FREQ_36MHz
 676:cmsis/device/system_stm32f10x.c **** /**
 677:cmsis/device/system_stm32f10x.c ****   * @brief  Sets System clock frequency to 36MHz and configure HCLK, PCLK2 
 678:cmsis/device/system_stm32f10x.c ****   *         and PCLK1 prescalers. 
 679:cmsis/device/system_stm32f10x.c ****   * @note   This function should be used only after reset.
 680:cmsis/device/system_stm32f10x.c ****   * @param  None
 681:cmsis/device/system_stm32f10x.c ****   * @retval None
 682:cmsis/device/system_stm32f10x.c ****   */
 683:cmsis/device/system_stm32f10x.c **** static void SetSysClockTo36(void)
 684:cmsis/device/system_stm32f10x.c **** {
 685:cmsis/device/system_stm32f10x.c ****   __IO uint32_t StartUpCounter = 0, HSEStatus = 0;
 686:cmsis/device/system_stm32f10x.c ****   
 687:cmsis/device/system_stm32f10x.c ****   /* SYSCLK, HCLK, PCLK2 and PCLK1 configuration ---------------------------*/    
 688:cmsis/device/system_stm32f10x.c ****   /* Enable HSE */    
 689:cmsis/device/system_stm32f10x.c ****   RCC->CR |= ((uint32_t)RCC_CR_HSEON);
 690:cmsis/device/system_stm32f10x.c ****  
 691:cmsis/device/system_stm32f10x.c ****   /* Wait till HSE is ready and if Time out is reached exit */
 692:cmsis/device/system_stm32f10x.c ****   do
 693:cmsis/device/system_stm32f10x.c ****   {
 694:cmsis/device/system_stm32f10x.c ****     HSEStatus = RCC->CR & RCC_CR_HSERDY;
 695:cmsis/device/system_stm32f10x.c ****     StartUpCounter++;  
 696:cmsis/device/system_stm32f10x.c ****   } while((HSEStatus == 0) && (StartUpCounter != HSE_STARTUP_TIMEOUT));
 697:cmsis/device/system_stm32f10x.c **** 
 698:cmsis/device/system_stm32f10x.c ****   if ((RCC->CR & RCC_CR_HSERDY) != RESET)
 699:cmsis/device/system_stm32f10x.c ****   {
 700:cmsis/device/system_stm32f10x.c ****     HSEStatus = (uint32_t)0x01;
 701:cmsis/device/system_stm32f10x.c ****   }
 702:cmsis/device/system_stm32f10x.c ****   else
 703:cmsis/device/system_stm32f10x.c ****   {
 704:cmsis/device/system_stm32f10x.c ****     HSEStatus = (uint32_t)0x00;
 705:cmsis/device/system_stm32f10x.c ****   }  
 706:cmsis/device/system_stm32f10x.c **** 
 707:cmsis/device/system_stm32f10x.c ****   if (HSEStatus == (uint32_t)0x01)
 708:cmsis/device/system_stm32f10x.c ****   {
 709:cmsis/device/system_stm32f10x.c ****     /* Enable Prefetch Buffer */
 710:cmsis/device/system_stm32f10x.c ****     FLASH->ACR |= FLASH_ACR_PRFTBE;
 711:cmsis/device/system_stm32f10x.c **** 
 712:cmsis/device/system_stm32f10x.c ****     /* Flash 1 wait state */
 713:cmsis/device/system_stm32f10x.c ****     FLASH->ACR &= (uint32_t)((uint32_t)~FLASH_ACR_LATENCY);
 714:cmsis/device/system_stm32f10x.c ****     FLASH->ACR |= (uint32_t)FLASH_ACR_LATENCY_1;    
 715:cmsis/device/system_stm32f10x.c ****  
 716:cmsis/device/system_stm32f10x.c ****     /* HCLK = SYSCLK */
 717:cmsis/device/system_stm32f10x.c ****     RCC->CFGR |= (uint32_t)RCC_CFGR_HPRE_DIV1;
 718:cmsis/device/system_stm32f10x.c ****       
 719:cmsis/device/system_stm32f10x.c ****     /* PCLK2 = HCLK */
 720:cmsis/device/system_stm32f10x.c ****     RCC->CFGR |= (uint32_t)RCC_CFGR_PPRE2_DIV1;
 721:cmsis/device/system_stm32f10x.c ****     
 722:cmsis/device/system_stm32f10x.c ****     /* PCLK1 = HCLK */
 723:cmsis/device/system_stm32f10x.c ****     RCC->CFGR |= (uint32_t)RCC_CFGR_PPRE1_DIV1;
 724:cmsis/device/system_stm32f10x.c ****     
 725:cmsis/device/system_stm32f10x.c **** #ifdef STM32F10X_CL
 726:cmsis/device/system_stm32f10x.c ****     /* Configure PLLs ------------------------------------------------------*/
 727:cmsis/device/system_stm32f10x.c ****     
 728:cmsis/device/system_stm32f10x.c ****     /* PLL configuration: PLLCLK = PREDIV1 * 9 = 36 MHz */ 
 729:cmsis/device/system_stm32f10x.c ****     RCC->CFGR &= (uint32_t)~(RCC_CFGR_PLLXTPRE | RCC_CFGR_PLLSRC | RCC_CFGR_PLLMULL);
ARM GAS  /tmp/ccBweOod.s 			page 20


 730:cmsis/device/system_stm32f10x.c ****     RCC->CFGR |= (uint32_t)(RCC_CFGR_PLLXTPRE_PREDIV1 | RCC_CFGR_PLLSRC_PREDIV1 | 
 731:cmsis/device/system_stm32f10x.c ****                             RCC_CFGR_PLLMULL9); 
 732:cmsis/device/system_stm32f10x.c **** 
 733:cmsis/device/system_stm32f10x.c **** 	/*!< PLL2 configuration: PLL2CLK = (HSE / 5) * 8 = 40 MHz */
 734:cmsis/device/system_stm32f10x.c ****     /* PREDIV1 configuration: PREDIV1CLK = PLL2 / 10 = 4 MHz */
 735:cmsis/device/system_stm32f10x.c ****         
 736:cmsis/device/system_stm32f10x.c ****     RCC->CFGR2 &= (uint32_t)~(RCC_CFGR2_PREDIV2 | RCC_CFGR2_PLL2MUL |
 737:cmsis/device/system_stm32f10x.c ****                               RCC_CFGR2_PREDIV1 | RCC_CFGR2_PREDIV1SRC);
 738:cmsis/device/system_stm32f10x.c ****     RCC->CFGR2 |= (uint32_t)(RCC_CFGR2_PREDIV2_DIV5 | RCC_CFGR2_PLL2MUL8 |
 739:cmsis/device/system_stm32f10x.c ****                              RCC_CFGR2_PREDIV1SRC_PLL2 | RCC_CFGR2_PREDIV1_DIV10);
 740:cmsis/device/system_stm32f10x.c ****   
 741:cmsis/device/system_stm32f10x.c ****     /* Enable PLL2 */
 742:cmsis/device/system_stm32f10x.c ****     RCC->CR |= RCC_CR_PLL2ON;
 743:cmsis/device/system_stm32f10x.c ****     /* Wait till PLL2 is ready */
 744:cmsis/device/system_stm32f10x.c ****     while((RCC->CR & RCC_CR_PLL2RDY) == 0)
 745:cmsis/device/system_stm32f10x.c ****     {
 746:cmsis/device/system_stm32f10x.c ****     }
 747:cmsis/device/system_stm32f10x.c ****     
 748:cmsis/device/system_stm32f10x.c **** #else    
 749:cmsis/device/system_stm32f10x.c ****     /*  PLL configuration: PLLCLK = (HSE / 2) * 9 = 36 MHz */
 750:cmsis/device/system_stm32f10x.c ****     RCC->CFGR &= (uint32_t)((uint32_t)~(RCC_CFGR_PLLSRC | RCC_CFGR_PLLXTPRE | RCC_CFGR_PLLMULL));
 751:cmsis/device/system_stm32f10x.c ****     RCC->CFGR |= (uint32_t)(RCC_CFGR_PLLSRC_HSE | RCC_CFGR_PLLXTPRE_HSE_Div2 | RCC_CFGR_PLLMULL9);
 752:cmsis/device/system_stm32f10x.c **** #endif /* STM32F10X_CL */
 753:cmsis/device/system_stm32f10x.c **** 
 754:cmsis/device/system_stm32f10x.c ****     /* Enable PLL */
 755:cmsis/device/system_stm32f10x.c ****     RCC->CR |= RCC_CR_PLLON;
 756:cmsis/device/system_stm32f10x.c **** 
 757:cmsis/device/system_stm32f10x.c ****     /* Wait till PLL is ready */
 758:cmsis/device/system_stm32f10x.c ****     while((RCC->CR & RCC_CR_PLLRDY) == 0)
 759:cmsis/device/system_stm32f10x.c ****     {
 760:cmsis/device/system_stm32f10x.c ****     }
 761:cmsis/device/system_stm32f10x.c **** 
 762:cmsis/device/system_stm32f10x.c ****     /* Select PLL as system clock source */
 763:cmsis/device/system_stm32f10x.c ****     RCC->CFGR &= (uint32_t)((uint32_t)~(RCC_CFGR_SW));
 764:cmsis/device/system_stm32f10x.c ****     RCC->CFGR |= (uint32_t)RCC_CFGR_SW_PLL;    
 765:cmsis/device/system_stm32f10x.c **** 
 766:cmsis/device/system_stm32f10x.c ****     /* Wait till PLL is used as system clock source */
 767:cmsis/device/system_stm32f10x.c ****     while ((RCC->CFGR & (uint32_t)RCC_CFGR_SWS) != (uint32_t)0x08)
 768:cmsis/device/system_stm32f10x.c ****     {
 769:cmsis/device/system_stm32f10x.c ****     }
 770:cmsis/device/system_stm32f10x.c ****   }
 771:cmsis/device/system_stm32f10x.c ****   else
 772:cmsis/device/system_stm32f10x.c ****   { /* If HSE fails to start-up, the application will have wrong clock 
 773:cmsis/device/system_stm32f10x.c ****          configuration. User can add here some code to deal with this error */
 774:cmsis/device/system_stm32f10x.c ****   } 
 775:cmsis/device/system_stm32f10x.c **** }
 776:cmsis/device/system_stm32f10x.c **** #elif defined SYSCLK_FREQ_48MHz
 777:cmsis/device/system_stm32f10x.c **** /**
 778:cmsis/device/system_stm32f10x.c ****   * @brief  Sets System clock frequency to 48MHz and configure HCLK, PCLK2 
 779:cmsis/device/system_stm32f10x.c ****   *         and PCLK1 prescalers. 
 780:cmsis/device/system_stm32f10x.c ****   * @note   This function should be used only after reset.
 781:cmsis/device/system_stm32f10x.c ****   * @param  None
 782:cmsis/device/system_stm32f10x.c ****   * @retval None
 783:cmsis/device/system_stm32f10x.c ****   */
 784:cmsis/device/system_stm32f10x.c **** static void SetSysClockTo48(void)
 785:cmsis/device/system_stm32f10x.c **** {
 786:cmsis/device/system_stm32f10x.c ****   __IO uint32_t StartUpCounter = 0, HSEStatus = 0;
ARM GAS  /tmp/ccBweOod.s 			page 21


 787:cmsis/device/system_stm32f10x.c ****   
 788:cmsis/device/system_stm32f10x.c ****   /* SYSCLK, HCLK, PCLK2 and PCLK1 configuration ---------------------------*/    
 789:cmsis/device/system_stm32f10x.c ****   /* Enable HSE */    
 790:cmsis/device/system_stm32f10x.c ****   RCC->CR |= ((uint32_t)RCC_CR_HSEON);
 791:cmsis/device/system_stm32f10x.c ****  
 792:cmsis/device/system_stm32f10x.c ****   /* Wait till HSE is ready and if Time out is reached exit */
 793:cmsis/device/system_stm32f10x.c ****   do
 794:cmsis/device/system_stm32f10x.c ****   {
 795:cmsis/device/system_stm32f10x.c ****     HSEStatus = RCC->CR & RCC_CR_HSERDY;
 796:cmsis/device/system_stm32f10x.c ****     StartUpCounter++;  
 797:cmsis/device/system_stm32f10x.c ****   } while((HSEStatus == 0) && (StartUpCounter != HSE_STARTUP_TIMEOUT));
 798:cmsis/device/system_stm32f10x.c **** 
 799:cmsis/device/system_stm32f10x.c ****   if ((RCC->CR & RCC_CR_HSERDY) != RESET)
 800:cmsis/device/system_stm32f10x.c ****   {
 801:cmsis/device/system_stm32f10x.c ****     HSEStatus = (uint32_t)0x01;
 802:cmsis/device/system_stm32f10x.c ****   }
 803:cmsis/device/system_stm32f10x.c ****   else
 804:cmsis/device/system_stm32f10x.c ****   {
 805:cmsis/device/system_stm32f10x.c ****     HSEStatus = (uint32_t)0x00;
 806:cmsis/device/system_stm32f10x.c ****   }  
 807:cmsis/device/system_stm32f10x.c **** 
 808:cmsis/device/system_stm32f10x.c ****   if (HSEStatus == (uint32_t)0x01)
 809:cmsis/device/system_stm32f10x.c ****   {
 810:cmsis/device/system_stm32f10x.c ****     /* Enable Prefetch Buffer */
 811:cmsis/device/system_stm32f10x.c ****     FLASH->ACR |= FLASH_ACR_PRFTBE;
 812:cmsis/device/system_stm32f10x.c **** 
 813:cmsis/device/system_stm32f10x.c ****     /* Flash 1 wait state */
 814:cmsis/device/system_stm32f10x.c ****     FLASH->ACR &= (uint32_t)((uint32_t)~FLASH_ACR_LATENCY);
 815:cmsis/device/system_stm32f10x.c ****     FLASH->ACR |= (uint32_t)FLASH_ACR_LATENCY_1;    
 816:cmsis/device/system_stm32f10x.c ****  
 817:cmsis/device/system_stm32f10x.c ****     /* HCLK = SYSCLK */
 818:cmsis/device/system_stm32f10x.c ****     RCC->CFGR |= (uint32_t)RCC_CFGR_HPRE_DIV1;
 819:cmsis/device/system_stm32f10x.c ****       
 820:cmsis/device/system_stm32f10x.c ****     /* PCLK2 = HCLK */
 821:cmsis/device/system_stm32f10x.c ****     RCC->CFGR |= (uint32_t)RCC_CFGR_PPRE2_DIV1;
 822:cmsis/device/system_stm32f10x.c ****     
 823:cmsis/device/system_stm32f10x.c ****     /* PCLK1 = HCLK */
 824:cmsis/device/system_stm32f10x.c ****     RCC->CFGR |= (uint32_t)RCC_CFGR_PPRE1_DIV2;
 825:cmsis/device/system_stm32f10x.c ****     
 826:cmsis/device/system_stm32f10x.c **** #ifdef STM32F10X_CL
 827:cmsis/device/system_stm32f10x.c ****     /* Configure PLLs ------------------------------------------------------*/
 828:cmsis/device/system_stm32f10x.c ****     /* PLL2 configuration: PLL2CLK = (HSE / 5) * 8 = 40 MHz */
 829:cmsis/device/system_stm32f10x.c ****     /* PREDIV1 configuration: PREDIV1CLK = PLL2 / 5 = 8 MHz */
 830:cmsis/device/system_stm32f10x.c ****         
 831:cmsis/device/system_stm32f10x.c ****     RCC->CFGR2 &= (uint32_t)~(RCC_CFGR2_PREDIV2 | RCC_CFGR2_PLL2MUL |
 832:cmsis/device/system_stm32f10x.c ****                               RCC_CFGR2_PREDIV1 | RCC_CFGR2_PREDIV1SRC);
 833:cmsis/device/system_stm32f10x.c ****     RCC->CFGR2 |= (uint32_t)(RCC_CFGR2_PREDIV2_DIV5 | RCC_CFGR2_PLL2MUL8 |
 834:cmsis/device/system_stm32f10x.c ****                              RCC_CFGR2_PREDIV1SRC_PLL2 | RCC_CFGR2_PREDIV1_DIV5);
 835:cmsis/device/system_stm32f10x.c ****   
 836:cmsis/device/system_stm32f10x.c ****     /* Enable PLL2 */
 837:cmsis/device/system_stm32f10x.c ****     RCC->CR |= RCC_CR_PLL2ON;
 838:cmsis/device/system_stm32f10x.c ****     /* Wait till PLL2 is ready */
 839:cmsis/device/system_stm32f10x.c ****     while((RCC->CR & RCC_CR_PLL2RDY) == 0)
 840:cmsis/device/system_stm32f10x.c ****     {
 841:cmsis/device/system_stm32f10x.c ****     }
 842:cmsis/device/system_stm32f10x.c ****     
 843:cmsis/device/system_stm32f10x.c ****    
ARM GAS  /tmp/ccBweOod.s 			page 22


 844:cmsis/device/system_stm32f10x.c ****     /* PLL configuration: PLLCLK = PREDIV1 * 6 = 48 MHz */ 
 845:cmsis/device/system_stm32f10x.c ****     RCC->CFGR &= (uint32_t)~(RCC_CFGR_PLLXTPRE | RCC_CFGR_PLLSRC | RCC_CFGR_PLLMULL);
 846:cmsis/device/system_stm32f10x.c ****     RCC->CFGR |= (uint32_t)(RCC_CFGR_PLLXTPRE_PREDIV1 | RCC_CFGR_PLLSRC_PREDIV1 | 
 847:cmsis/device/system_stm32f10x.c ****                             RCC_CFGR_PLLMULL6); 
 848:cmsis/device/system_stm32f10x.c **** #else    
 849:cmsis/device/system_stm32f10x.c ****     /*  PLL configuration: PLLCLK = HSE * 6 = 48 MHz */
 850:cmsis/device/system_stm32f10x.c ****     RCC->CFGR &= (uint32_t)((uint32_t)~(RCC_CFGR_PLLSRC | RCC_CFGR_PLLXTPRE | RCC_CFGR_PLLMULL));
 851:cmsis/device/system_stm32f10x.c ****     RCC->CFGR |= (uint32_t)(RCC_CFGR_PLLSRC_HSE | RCC_CFGR_PLLMULL6);
 852:cmsis/device/system_stm32f10x.c **** #endif /* STM32F10X_CL */
 853:cmsis/device/system_stm32f10x.c **** 
 854:cmsis/device/system_stm32f10x.c ****     /* Enable PLL */
 855:cmsis/device/system_stm32f10x.c ****     RCC->CR |= RCC_CR_PLLON;
 856:cmsis/device/system_stm32f10x.c **** 
 857:cmsis/device/system_stm32f10x.c ****     /* Wait till PLL is ready */
 858:cmsis/device/system_stm32f10x.c ****     while((RCC->CR & RCC_CR_PLLRDY) == 0)
 859:cmsis/device/system_stm32f10x.c ****     {
 860:cmsis/device/system_stm32f10x.c ****     }
 861:cmsis/device/system_stm32f10x.c **** 
 862:cmsis/device/system_stm32f10x.c ****     /* Select PLL as system clock source */
 863:cmsis/device/system_stm32f10x.c ****     RCC->CFGR &= (uint32_t)((uint32_t)~(RCC_CFGR_SW));
 864:cmsis/device/system_stm32f10x.c ****     RCC->CFGR |= (uint32_t)RCC_CFGR_SW_PLL;    
 865:cmsis/device/system_stm32f10x.c **** 
 866:cmsis/device/system_stm32f10x.c ****     /* Wait till PLL is used as system clock source */
 867:cmsis/device/system_stm32f10x.c ****     while ((RCC->CFGR & (uint32_t)RCC_CFGR_SWS) != (uint32_t)0x08)
 868:cmsis/device/system_stm32f10x.c ****     {
 869:cmsis/device/system_stm32f10x.c ****     }
 870:cmsis/device/system_stm32f10x.c ****   }
 871:cmsis/device/system_stm32f10x.c ****   else
 872:cmsis/device/system_stm32f10x.c ****   { /* If HSE fails to start-up, the application will have wrong clock 
 873:cmsis/device/system_stm32f10x.c ****          configuration. User can add here some code to deal with this error */
 874:cmsis/device/system_stm32f10x.c ****   } 
 875:cmsis/device/system_stm32f10x.c **** }
 876:cmsis/device/system_stm32f10x.c **** 
 877:cmsis/device/system_stm32f10x.c **** #elif defined SYSCLK_FREQ_56MHz
 878:cmsis/device/system_stm32f10x.c **** /**
 879:cmsis/device/system_stm32f10x.c ****   * @brief  Sets System clock frequency to 56MHz and configure HCLK, PCLK2 
 880:cmsis/device/system_stm32f10x.c ****   *         and PCLK1 prescalers. 
 881:cmsis/device/system_stm32f10x.c ****   * @note   This function should be used only after reset.
 882:cmsis/device/system_stm32f10x.c ****   * @param  None
 883:cmsis/device/system_stm32f10x.c ****   * @retval None
 884:cmsis/device/system_stm32f10x.c ****   */
 885:cmsis/device/system_stm32f10x.c **** static void SetSysClockTo56(void)
 886:cmsis/device/system_stm32f10x.c **** {
 887:cmsis/device/system_stm32f10x.c ****   __IO uint32_t StartUpCounter = 0, HSEStatus = 0;
 888:cmsis/device/system_stm32f10x.c ****   
 889:cmsis/device/system_stm32f10x.c ****   /* SYSCLK, HCLK, PCLK2 and PCLK1 configuration ---------------------------*/   
 890:cmsis/device/system_stm32f10x.c ****   /* Enable HSE */    
 891:cmsis/device/system_stm32f10x.c ****   RCC->CR |= ((uint32_t)RCC_CR_HSEON);
 892:cmsis/device/system_stm32f10x.c ****  
 893:cmsis/device/system_stm32f10x.c ****   /* Wait till HSE is ready and if Time out is reached exit */
 894:cmsis/device/system_stm32f10x.c ****   do
 895:cmsis/device/system_stm32f10x.c ****   {
 896:cmsis/device/system_stm32f10x.c ****     HSEStatus = RCC->CR & RCC_CR_HSERDY;
 897:cmsis/device/system_stm32f10x.c ****     StartUpCounter++;  
 898:cmsis/device/system_stm32f10x.c ****   } while((HSEStatus == 0) && (StartUpCounter != HSE_STARTUP_TIMEOUT));
 899:cmsis/device/system_stm32f10x.c **** 
 900:cmsis/device/system_stm32f10x.c ****   if ((RCC->CR & RCC_CR_HSERDY) != RESET)
ARM GAS  /tmp/ccBweOod.s 			page 23


 901:cmsis/device/system_stm32f10x.c ****   {
 902:cmsis/device/system_stm32f10x.c ****     HSEStatus = (uint32_t)0x01;
 903:cmsis/device/system_stm32f10x.c ****   }
 904:cmsis/device/system_stm32f10x.c ****   else
 905:cmsis/device/system_stm32f10x.c ****   {
 906:cmsis/device/system_stm32f10x.c ****     HSEStatus = (uint32_t)0x00;
 907:cmsis/device/system_stm32f10x.c ****   }  
 908:cmsis/device/system_stm32f10x.c **** 
 909:cmsis/device/system_stm32f10x.c ****   if (HSEStatus == (uint32_t)0x01)
 910:cmsis/device/system_stm32f10x.c ****   {
 911:cmsis/device/system_stm32f10x.c ****     /* Enable Prefetch Buffer */
 912:cmsis/device/system_stm32f10x.c ****     FLASH->ACR |= FLASH_ACR_PRFTBE;
 913:cmsis/device/system_stm32f10x.c **** 
 914:cmsis/device/system_stm32f10x.c ****     /* Flash 2 wait state */
 915:cmsis/device/system_stm32f10x.c ****     FLASH->ACR &= (uint32_t)((uint32_t)~FLASH_ACR_LATENCY);
 916:cmsis/device/system_stm32f10x.c ****     FLASH->ACR |= (uint32_t)FLASH_ACR_LATENCY_2;    
 917:cmsis/device/system_stm32f10x.c ****  
 918:cmsis/device/system_stm32f10x.c ****     /* HCLK = SYSCLK */
 919:cmsis/device/system_stm32f10x.c ****     RCC->CFGR |= (uint32_t)RCC_CFGR_HPRE_DIV1;
 920:cmsis/device/system_stm32f10x.c ****       
 921:cmsis/device/system_stm32f10x.c ****     /* PCLK2 = HCLK */
 922:cmsis/device/system_stm32f10x.c ****     RCC->CFGR |= (uint32_t)RCC_CFGR_PPRE2_DIV1;
 923:cmsis/device/system_stm32f10x.c ****     
 924:cmsis/device/system_stm32f10x.c ****     /* PCLK1 = HCLK */
 925:cmsis/device/system_stm32f10x.c ****     RCC->CFGR |= (uint32_t)RCC_CFGR_PPRE1_DIV2;
 926:cmsis/device/system_stm32f10x.c **** 
 927:cmsis/device/system_stm32f10x.c **** #ifdef STM32F10X_CL
 928:cmsis/device/system_stm32f10x.c ****     /* Configure PLLs ------------------------------------------------------*/
 929:cmsis/device/system_stm32f10x.c ****     /* PLL2 configuration: PLL2CLK = (HSE / 5) * 8 = 40 MHz */
 930:cmsis/device/system_stm32f10x.c ****     /* PREDIV1 configuration: PREDIV1CLK = PLL2 / 5 = 8 MHz */
 931:cmsis/device/system_stm32f10x.c ****         
 932:cmsis/device/system_stm32f10x.c ****     RCC->CFGR2 &= (uint32_t)~(RCC_CFGR2_PREDIV2 | RCC_CFGR2_PLL2MUL |
 933:cmsis/device/system_stm32f10x.c ****                               RCC_CFGR2_PREDIV1 | RCC_CFGR2_PREDIV1SRC);
 934:cmsis/device/system_stm32f10x.c ****     RCC->CFGR2 |= (uint32_t)(RCC_CFGR2_PREDIV2_DIV5 | RCC_CFGR2_PLL2MUL8 |
 935:cmsis/device/system_stm32f10x.c ****                              RCC_CFGR2_PREDIV1SRC_PLL2 | RCC_CFGR2_PREDIV1_DIV5);
 936:cmsis/device/system_stm32f10x.c ****   
 937:cmsis/device/system_stm32f10x.c ****     /* Enable PLL2 */
 938:cmsis/device/system_stm32f10x.c ****     RCC->CR |= RCC_CR_PLL2ON;
 939:cmsis/device/system_stm32f10x.c ****     /* Wait till PLL2 is ready */
 940:cmsis/device/system_stm32f10x.c ****     while((RCC->CR & RCC_CR_PLL2RDY) == 0)
 941:cmsis/device/system_stm32f10x.c ****     {
 942:cmsis/device/system_stm32f10x.c ****     }
 943:cmsis/device/system_stm32f10x.c ****     
 944:cmsis/device/system_stm32f10x.c ****    
 945:cmsis/device/system_stm32f10x.c ****     /* PLL configuration: PLLCLK = PREDIV1 * 7 = 56 MHz */ 
 946:cmsis/device/system_stm32f10x.c ****     RCC->CFGR &= (uint32_t)~(RCC_CFGR_PLLXTPRE | RCC_CFGR_PLLSRC | RCC_CFGR_PLLMULL);
 947:cmsis/device/system_stm32f10x.c ****     RCC->CFGR |= (uint32_t)(RCC_CFGR_PLLXTPRE_PREDIV1 | RCC_CFGR_PLLSRC_PREDIV1 | 
 948:cmsis/device/system_stm32f10x.c ****                             RCC_CFGR_PLLMULL7); 
 949:cmsis/device/system_stm32f10x.c **** #else     
 950:cmsis/device/system_stm32f10x.c ****     /* PLL configuration: PLLCLK = HSE * 7 = 56 MHz */
 951:cmsis/device/system_stm32f10x.c ****     RCC->CFGR &= (uint32_t)((uint32_t)~(RCC_CFGR_PLLSRC | RCC_CFGR_PLLXTPRE | RCC_CFGR_PLLMULL));
 952:cmsis/device/system_stm32f10x.c ****     RCC->CFGR |= (uint32_t)(RCC_CFGR_PLLSRC_HSE | RCC_CFGR_PLLMULL7);
 953:cmsis/device/system_stm32f10x.c **** 
 954:cmsis/device/system_stm32f10x.c **** #endif /* STM32F10X_CL */
 955:cmsis/device/system_stm32f10x.c **** 
 956:cmsis/device/system_stm32f10x.c ****     /* Enable PLL */
 957:cmsis/device/system_stm32f10x.c ****     RCC->CR |= RCC_CR_PLLON;
ARM GAS  /tmp/ccBweOod.s 			page 24


 958:cmsis/device/system_stm32f10x.c **** 
 959:cmsis/device/system_stm32f10x.c ****     /* Wait till PLL is ready */
 960:cmsis/device/system_stm32f10x.c ****     while((RCC->CR & RCC_CR_PLLRDY) == 0)
 961:cmsis/device/system_stm32f10x.c ****     {
 962:cmsis/device/system_stm32f10x.c ****     }
 963:cmsis/device/system_stm32f10x.c **** 
 964:cmsis/device/system_stm32f10x.c ****     /* Select PLL as system clock source */
 965:cmsis/device/system_stm32f10x.c ****     RCC->CFGR &= (uint32_t)((uint32_t)~(RCC_CFGR_SW));
 966:cmsis/device/system_stm32f10x.c ****     RCC->CFGR |= (uint32_t)RCC_CFGR_SW_PLL;    
 967:cmsis/device/system_stm32f10x.c **** 
 968:cmsis/device/system_stm32f10x.c ****     /* Wait till PLL is used as system clock source */
 969:cmsis/device/system_stm32f10x.c ****     while ((RCC->CFGR & (uint32_t)RCC_CFGR_SWS) != (uint32_t)0x08)
 970:cmsis/device/system_stm32f10x.c ****     {
 971:cmsis/device/system_stm32f10x.c ****     }
 972:cmsis/device/system_stm32f10x.c ****   }
 973:cmsis/device/system_stm32f10x.c ****   else
 974:cmsis/device/system_stm32f10x.c ****   { /* If HSE fails to start-up, the application will have wrong clock 
 975:cmsis/device/system_stm32f10x.c ****          configuration. User can add here some code to deal with this error */
 976:cmsis/device/system_stm32f10x.c ****   } 
 977:cmsis/device/system_stm32f10x.c **** }
 978:cmsis/device/system_stm32f10x.c **** 
 979:cmsis/device/system_stm32f10x.c **** #elif defined SYSCLK_FREQ_72MHz
 980:cmsis/device/system_stm32f10x.c **** /**
 981:cmsis/device/system_stm32f10x.c ****   * @brief  Sets System clock frequency to 72MHz and configure HCLK, PCLK2 
 982:cmsis/device/system_stm32f10x.c ****   *         and PCLK1 prescalers. 
 983:cmsis/device/system_stm32f10x.c ****   * @note   This function should be used only after reset.
 984:cmsis/device/system_stm32f10x.c ****   * @param  None
 985:cmsis/device/system_stm32f10x.c ****   * @retval None
 986:cmsis/device/system_stm32f10x.c ****   */
 987:cmsis/device/system_stm32f10x.c **** static void SetSysClockTo72(void)
 988:cmsis/device/system_stm32f10x.c **** {
 352              		.loc 1 988 0
 353              		.cfi_startproc
 354              		@ args = 0, pretend = 0, frame = 8
 355              		@ frame_needed = 1, uses_anonymous_args = 0
 356              		@ link register save eliminated.
 357 0200 80B4     		push	{r7}	@
 358              	.LCFI7:
 359              		.cfi_def_cfa_offset 4
 360              		.cfi_offset 7, -4
 361 0202 83B0     		sub	sp, sp, #12	@,,
 362              	.LCFI8:
 363              		.cfi_def_cfa_offset 16
 364 0204 00AF     		add	r7, sp, #0	@,,
 365              	.LCFI9:
 366              		.cfi_def_cfa_register 7
 989:cmsis/device/system_stm32f10x.c ****   __IO uint32_t StartUpCounter = 0, HSEStatus = 0;
 367              		.loc 1 989 0
 368 0206 4FF00003 		mov	r3, #0	@ tmp197,
 369 020a 7B60     		str	r3, [r7, #4]	@ tmp197, StartUpCounter
 370 020c 4FF00003 		mov	r3, #0	@ tmp198,
 371 0210 3B60     		str	r3, [r7, #0]	@ tmp198, HSEStatus
 990:cmsis/device/system_stm32f10x.c ****   
 991:cmsis/device/system_stm32f10x.c ****   /* SYSCLK, HCLK, PCLK2 and PCLK1 configuration ---------------------------*/    
 992:cmsis/device/system_stm32f10x.c ****   /* Enable HSE */    
 993:cmsis/device/system_stm32f10x.c ****   RCC->CR |= ((uint32_t)RCC_CR_HSEON);
 372              		.loc 1 993 0
ARM GAS  /tmp/ccBweOod.s 			page 25


 373 0212 4FF48053 		mov	r3, #4096	@ D.5656,
 374 0216 C4F20203 		movt	r3, 16386	@ D.5656,
 375 021a 4FF48052 		mov	r2, #4096	@ D.5657,
 376 021e C4F20202 		movt	r2, 16386	@ D.5657,
 377 0222 1268     		ldr	r2, [r2, #0]	@ tmp199,* D.5657
 378 0224 42F48032 		orr	r2, r2, #65536	@ D.5659, D.5658,
 379 0228 1A60     		str	r2, [r3, #0]	@ D.5659, D.5656_1->CR
 380              	.L15:
 994:cmsis/device/system_stm32f10x.c ****  
 995:cmsis/device/system_stm32f10x.c ****   /* Wait till HSE is ready and if Time out is reached exit */
 996:cmsis/device/system_stm32f10x.c ****   do
 997:cmsis/device/system_stm32f10x.c ****   {
 998:cmsis/device/system_stm32f10x.c ****     HSEStatus = RCC->CR & RCC_CR_HSERDY;
 381              		.loc 1 998 0 discriminator 1
 382 022a 4FF48053 		mov	r3, #4096	@ D.5660,
 383 022e C4F20203 		movt	r3, 16386	@ D.5660,
 384 0232 1B68     		ldr	r3, [r3, #0]	@ tmp200,* D.5660
 385 0234 03F40033 		and	r3, r3, #131072	@ HSEStatus.0, D.5661,
 386 0238 3B60     		str	r3, [r7, #0]	@ HSEStatus.0, HSEStatus
 999:cmsis/device/system_stm32f10x.c ****     StartUpCounter++;  
 387              		.loc 1 999 0 discriminator 1
 388 023a 7B68     		ldr	r3, [r7, #4]	@ StartUpCounter.1, StartUpCounter
 389 023c 03F10103 		add	r3, r3, #1	@ StartUpCounter.2, StartUpCounter.1,
 390 0240 7B60     		str	r3, [r7, #4]	@ StartUpCounter.2, StartUpCounter
1000:cmsis/device/system_stm32f10x.c ****   } while((HSEStatus == 0) && (StartUpCounter != HSE_STARTUP_TIMEOUT));
 391              		.loc 1 1000 0 discriminator 1
 392 0242 3B68     		ldr	r3, [r7, #0]	@ HSEStatus.3, HSEStatus
 393 0244 002B     		cmp	r3, #0	@ HSEStatus.3,
 394 0246 03D1     		bne	.L14	@,
 395 0248 7B68     		ldr	r3, [r7, #4]	@ StartUpCounter.4, StartUpCounter
 396 024a B3F5A06F 		cmp	r3, #1280	@ StartUpCounter.4,
 397 024e ECD1     		bne	.L15	@,
 398              	.L14:
1001:cmsis/device/system_stm32f10x.c **** 
1002:cmsis/device/system_stm32f10x.c ****   if ((RCC->CR & RCC_CR_HSERDY) != RESET)
 399              		.loc 1 1002 0
 400 0250 4FF48053 		mov	r3, #4096	@ D.5668,
 401 0254 C4F20203 		movt	r3, 16386	@ D.5668,
 402 0258 1B68     		ldr	r3, [r3, #0]	@ tmp201,* D.5668
 403 025a 03F40033 		and	r3, r3, #131072	@ D.5670, D.5669,
 404 025e 002B     		cmp	r3, #0	@ D.5670,
 405 0260 03D0     		beq	.L16	@,
1003:cmsis/device/system_stm32f10x.c ****   {
1004:cmsis/device/system_stm32f10x.c ****     HSEStatus = (uint32_t)0x01;
 406              		.loc 1 1004 0
 407 0262 4FF00103 		mov	r3, #1	@ tmp202,
 408 0266 3B60     		str	r3, [r7, #0]	@ tmp202, HSEStatus
 409 0268 02E0     		b	.L17	@
 410              	.L16:
1005:cmsis/device/system_stm32f10x.c ****   }
1006:cmsis/device/system_stm32f10x.c ****   else
1007:cmsis/device/system_stm32f10x.c ****   {
1008:cmsis/device/system_stm32f10x.c ****     HSEStatus = (uint32_t)0x00;
 411              		.loc 1 1008 0
 412 026a 4FF00003 		mov	r3, #0	@ tmp203,
 413 026e 3B60     		str	r3, [r7, #0]	@ tmp203, HSEStatus
 414              	.L17:
ARM GAS  /tmp/ccBweOod.s 			page 26


1009:cmsis/device/system_stm32f10x.c ****   }  
1010:cmsis/device/system_stm32f10x.c **** 
1011:cmsis/device/system_stm32f10x.c ****   if (HSEStatus == (uint32_t)0x01)
 415              		.loc 1 1011 0
 416 0270 3B68     		ldr	r3, [r7, #0]	@ HSEStatus.5, HSEStatus
 417 0272 012B     		cmp	r3, #1	@ HSEStatus.5,
 418 0274 40F09480 		bne	.L13	@,
1012:cmsis/device/system_stm32f10x.c ****   {
1013:cmsis/device/system_stm32f10x.c ****     /* Enable Prefetch Buffer */
1014:cmsis/device/system_stm32f10x.c ****     FLASH->ACR |= FLASH_ACR_PRFTBE;
 419              		.loc 1 1014 0
 420 0278 4FF40053 		mov	r3, #8192	@ D.5677,
 421 027c C4F20203 		movt	r3, 16386	@ D.5677,
 422 0280 4FF40052 		mov	r2, #8192	@ D.5678,
 423 0284 C4F20202 		movt	r2, 16386	@ D.5678,
 424 0288 1268     		ldr	r2, [r2, #0]	@ tmp204,* D.5678
 425 028a 42F01002 		orr	r2, r2, #16	@ D.5680, D.5679,
 426 028e 1A60     		str	r2, [r3, #0]	@ D.5680, D.5677_16->ACR
1015:cmsis/device/system_stm32f10x.c **** 
1016:cmsis/device/system_stm32f10x.c ****     /* Flash 2 wait state */
1017:cmsis/device/system_stm32f10x.c ****     FLASH->ACR &= (uint32_t)((uint32_t)~FLASH_ACR_LATENCY);
 427              		.loc 1 1017 0
 428 0290 4FF40053 		mov	r3, #8192	@ D.5681,
 429 0294 C4F20203 		movt	r3, 16386	@ D.5681,
 430 0298 4FF40052 		mov	r2, #8192	@ D.5682,
 431 029c C4F20202 		movt	r2, 16386	@ D.5682,
 432 02a0 1268     		ldr	r2, [r2, #0]	@ tmp205,* D.5682
 433 02a2 22F00302 		bic	r2, r2, #3	@ D.5684, D.5683,
 434 02a6 1A60     		str	r2, [r3, #0]	@ D.5684, D.5681_20->ACR
1018:cmsis/device/system_stm32f10x.c ****     FLASH->ACR |= (uint32_t)FLASH_ACR_LATENCY_2;    
 435              		.loc 1 1018 0
 436 02a8 4FF40053 		mov	r3, #8192	@ D.5685,
 437 02ac C4F20203 		movt	r3, 16386	@ D.5685,
 438 02b0 4FF40052 		mov	r2, #8192	@ D.5686,
 439 02b4 C4F20202 		movt	r2, 16386	@ D.5686,
 440 02b8 1268     		ldr	r2, [r2, #0]	@ tmp206,* D.5686
 441 02ba 42F00202 		orr	r2, r2, #2	@ D.5688, D.5687,
 442 02be 1A60     		str	r2, [r3, #0]	@ D.5688, D.5685_24->ACR
1019:cmsis/device/system_stm32f10x.c **** 
1020:cmsis/device/system_stm32f10x.c ****  
1021:cmsis/device/system_stm32f10x.c ****     /* HCLK = SYSCLK */
1022:cmsis/device/system_stm32f10x.c ****     RCC->CFGR |= (uint32_t)RCC_CFGR_HPRE_DIV1;
 443              		.loc 1 1022 0
 444 02c0 4FF48053 		mov	r3, #4096	@ D.5689,
 445 02c4 C4F20203 		movt	r3, 16386	@ D.5689,
 446 02c8 4FF48052 		mov	r2, #4096	@ D.5690,
 447 02cc C4F20202 		movt	r2, 16386	@ D.5690,
 448 02d0 5268     		ldr	r2, [r2, #4]	@ tmp207,
 449 02d2 5A60     		str	r2, [r3, #4]	@ D.5691, D.5689_28->CFGR
1023:cmsis/device/system_stm32f10x.c ****       
1024:cmsis/device/system_stm32f10x.c ****     /* PCLK2 = HCLK */
1025:cmsis/device/system_stm32f10x.c ****     RCC->CFGR |= (uint32_t)RCC_CFGR_PPRE2_DIV1;
 450              		.loc 1 1025 0
 451 02d4 4FF48053 		mov	r3, #4096	@ D.5692,
 452 02d8 C4F20203 		movt	r3, 16386	@ D.5692,
 453 02dc 4FF48052 		mov	r2, #4096	@ D.5693,
 454 02e0 C4F20202 		movt	r2, 16386	@ D.5693,
ARM GAS  /tmp/ccBweOod.s 			page 27


 455 02e4 5268     		ldr	r2, [r2, #4]	@ tmp208,
 456 02e6 5A60     		str	r2, [r3, #4]	@ D.5694, D.5692_31->CFGR
1026:cmsis/device/system_stm32f10x.c ****     
1027:cmsis/device/system_stm32f10x.c ****     /* PCLK1 = HCLK */
1028:cmsis/device/system_stm32f10x.c ****     RCC->CFGR |= (uint32_t)RCC_CFGR_PPRE1_DIV2;
 457              		.loc 1 1028 0
 458 02e8 4FF48053 		mov	r3, #4096	@ D.5695,
 459 02ec C4F20203 		movt	r3, 16386	@ D.5695,
 460 02f0 4FF48052 		mov	r2, #4096	@ D.5696,
 461 02f4 C4F20202 		movt	r2, 16386	@ D.5696,
 462 02f8 5268     		ldr	r2, [r2, #4]	@ tmp209,
 463 02fa 42F48062 		orr	r2, r2, #1024	@ D.5698, D.5697,
 464 02fe 5A60     		str	r2, [r3, #4]	@ D.5698, D.5695_34->CFGR
1029:cmsis/device/system_stm32f10x.c **** 
1030:cmsis/device/system_stm32f10x.c **** #ifdef STM32F10X_CL
1031:cmsis/device/system_stm32f10x.c ****     /* Configure PLLs ------------------------------------------------------*/
1032:cmsis/device/system_stm32f10x.c ****     /* PLL2 configuration: PLL2CLK = (HSE / 5) * 8 = 40 MHz */
1033:cmsis/device/system_stm32f10x.c ****     /* PREDIV1 configuration: PREDIV1CLK = PLL2 / 5 = 8 MHz */
1034:cmsis/device/system_stm32f10x.c ****         
1035:cmsis/device/system_stm32f10x.c ****     RCC->CFGR2 &= (uint32_t)~(RCC_CFGR2_PREDIV2 | RCC_CFGR2_PLL2MUL |
1036:cmsis/device/system_stm32f10x.c ****                               RCC_CFGR2_PREDIV1 | RCC_CFGR2_PREDIV1SRC);
1037:cmsis/device/system_stm32f10x.c ****     RCC->CFGR2 |= (uint32_t)(RCC_CFGR2_PREDIV2_DIV5 | RCC_CFGR2_PLL2MUL8 |
1038:cmsis/device/system_stm32f10x.c ****                              RCC_CFGR2_PREDIV1SRC_PLL2 | RCC_CFGR2_PREDIV1_DIV5);
1039:cmsis/device/system_stm32f10x.c ****   
1040:cmsis/device/system_stm32f10x.c ****     /* Enable PLL2 */
1041:cmsis/device/system_stm32f10x.c ****     RCC->CR |= RCC_CR_PLL2ON;
1042:cmsis/device/system_stm32f10x.c ****     /* Wait till PLL2 is ready */
1043:cmsis/device/system_stm32f10x.c ****     while((RCC->CR & RCC_CR_PLL2RDY) == 0)
1044:cmsis/device/system_stm32f10x.c ****     {
1045:cmsis/device/system_stm32f10x.c ****     }
1046:cmsis/device/system_stm32f10x.c ****     
1047:cmsis/device/system_stm32f10x.c ****    
1048:cmsis/device/system_stm32f10x.c ****     /* PLL configuration: PLLCLK = PREDIV1 * 9 = 72 MHz */ 
1049:cmsis/device/system_stm32f10x.c ****     RCC->CFGR &= (uint32_t)~(RCC_CFGR_PLLXTPRE | RCC_CFGR_PLLSRC | RCC_CFGR_PLLMULL);
1050:cmsis/device/system_stm32f10x.c ****     RCC->CFGR |= (uint32_t)(RCC_CFGR_PLLXTPRE_PREDIV1 | RCC_CFGR_PLLSRC_PREDIV1 | 
1051:cmsis/device/system_stm32f10x.c ****                             RCC_CFGR_PLLMULL9); 
1052:cmsis/device/system_stm32f10x.c **** #else    
1053:cmsis/device/system_stm32f10x.c ****     /*  PLL configuration: PLLCLK = HSE * 9 = 72 MHz */
1054:cmsis/device/system_stm32f10x.c ****     RCC->CFGR &= (uint32_t)((uint32_t)~(RCC_CFGR_PLLSRC | RCC_CFGR_PLLXTPRE |
 465              		.loc 1 1054 0
 466 0300 4FF48053 		mov	r3, #4096	@ D.5699,
 467 0304 C4F20203 		movt	r3, 16386	@ D.5699,
 468 0308 4FF48052 		mov	r2, #4096	@ D.5700,
 469 030c C4F20202 		movt	r2, 16386	@ D.5700,
 470 0310 5268     		ldr	r2, [r2, #4]	@ tmp210,
 471 0312 22F47C12 		bic	r2, r2, #4128768	@ D.5702, D.5701,
 472 0316 5A60     		str	r2, [r3, #4]	@ D.5702, D.5699_38->CFGR
1055:cmsis/device/system_stm32f10x.c ****                                         RCC_CFGR_PLLMULL));
1056:cmsis/device/system_stm32f10x.c ****     RCC->CFGR |= (uint32_t)(RCC_CFGR_PLLSRC_HSE | RCC_CFGR_PLLMULL9);
 473              		.loc 1 1056 0
 474 0318 4FF48053 		mov	r3, #4096	@ D.5703,
 475 031c C4F20203 		movt	r3, 16386	@ D.5703,
 476 0320 4FF48052 		mov	r2, #4096	@ D.5704,
 477 0324 C4F20202 		movt	r2, 16386	@ D.5704,
 478 0328 5268     		ldr	r2, [r2, #4]	@ tmp211,
 479 032a 42F4E812 		orr	r2, r2, #1900544	@ D.5706, D.5705,
 480 032e 5A60     		str	r2, [r3, #4]	@ D.5706, D.5703_42->CFGR
ARM GAS  /tmp/ccBweOod.s 			page 28


1057:cmsis/device/system_stm32f10x.c **** #endif /* STM32F10X_CL */
1058:cmsis/device/system_stm32f10x.c **** 
1059:cmsis/device/system_stm32f10x.c ****     /* Enable PLL */
1060:cmsis/device/system_stm32f10x.c ****     RCC->CR |= RCC_CR_PLLON;
 481              		.loc 1 1060 0
 482 0330 4FF48053 		mov	r3, #4096	@ D.5707,
 483 0334 C4F20203 		movt	r3, 16386	@ D.5707,
 484 0338 4FF48052 		mov	r2, #4096	@ D.5708,
 485 033c C4F20202 		movt	r2, 16386	@ D.5708,
 486 0340 1268     		ldr	r2, [r2, #0]	@ tmp212,* D.5708
 487 0342 42F08072 		orr	r2, r2, #16777216	@ D.5710, D.5709,
 488 0346 1A60     		str	r2, [r3, #0]	@ D.5710, D.5707_46->CR
1061:cmsis/device/system_stm32f10x.c **** 
1062:cmsis/device/system_stm32f10x.c ****     /* Wait till PLL is ready */
1063:cmsis/device/system_stm32f10x.c ****     while((RCC->CR & RCC_CR_PLLRDY) == 0)
 489              		.loc 1 1063 0
 490 0348 00BF     		nop
 491              	.L19:
 492              		.loc 1 1063 0 is_stmt 0 discriminator 1
 493 034a 4FF48053 		mov	r3, #4096	@ D.5711,
 494 034e C4F20203 		movt	r3, 16386	@ D.5711,
 495 0352 1B68     		ldr	r3, [r3, #0]	@ tmp213,* D.5711
 496 0354 03F00073 		and	r3, r3, #33554432	@ D.5713, D.5712,
 497 0358 002B     		cmp	r3, #0	@ D.5713,
 498 035a F6D0     		beq	.L19	@,
1064:cmsis/device/system_stm32f10x.c ****     {
1065:cmsis/device/system_stm32f10x.c ****     }
1066:cmsis/device/system_stm32f10x.c ****     
1067:cmsis/device/system_stm32f10x.c ****     /* Select PLL as system clock source */
1068:cmsis/device/system_stm32f10x.c ****     RCC->CFGR &= (uint32_t)((uint32_t)~(RCC_CFGR_SW));
 499              		.loc 1 1068 0 is_stmt 1
 500 035c 4FF48053 		mov	r3, #4096	@ D.5714,
 501 0360 C4F20203 		movt	r3, 16386	@ D.5714,
 502 0364 4FF48052 		mov	r2, #4096	@ D.5715,
 503 0368 C4F20202 		movt	r2, 16386	@ D.5715,
 504 036c 5268     		ldr	r2, [r2, #4]	@ tmp214,
 505 036e 22F00302 		bic	r2, r2, #3	@ D.5717, D.5716,
 506 0372 5A60     		str	r2, [r3, #4]	@ D.5717, D.5714_53->CFGR
1069:cmsis/device/system_stm32f10x.c ****     RCC->CFGR |= (uint32_t)RCC_CFGR_SW_PLL;    
 507              		.loc 1 1069 0
 508 0374 4FF48053 		mov	r3, #4096	@ D.5718,
 509 0378 C4F20203 		movt	r3, 16386	@ D.5718,
 510 037c 4FF48052 		mov	r2, #4096	@ D.5719,
 511 0380 C4F20202 		movt	r2, 16386	@ D.5719,
 512 0384 5268     		ldr	r2, [r2, #4]	@ tmp215,
 513 0386 42F00202 		orr	r2, r2, #2	@ D.5721, D.5720,
 514 038a 5A60     		str	r2, [r3, #4]	@ D.5721, D.5718_57->CFGR
1070:cmsis/device/system_stm32f10x.c **** 
1071:cmsis/device/system_stm32f10x.c ****     /* Wait till PLL is used as system clock source */
1072:cmsis/device/system_stm32f10x.c ****     while ((RCC->CFGR & (uint32_t)RCC_CFGR_SWS) != (uint32_t)0x08)
 515              		.loc 1 1072 0
 516 038c 00BF     		nop
 517              	.L20:
 518              		.loc 1 1072 0 is_stmt 0 discriminator 1
 519 038e 4FF48053 		mov	r3, #4096	@ D.5722,
 520 0392 C4F20203 		movt	r3, 16386	@ D.5722,
 521 0396 5B68     		ldr	r3, [r3, #4]	@ tmp216,
ARM GAS  /tmp/ccBweOod.s 			page 29


 522 0398 03F00C03 		and	r3, r3, #12	@ D.5724, D.5723,
 523 039c 082B     		cmp	r3, #8	@ D.5724,
 524 039e F6D1     		bne	.L20	@,
 525              	.L13:
1073:cmsis/device/system_stm32f10x.c ****     {
1074:cmsis/device/system_stm32f10x.c ****     }
1075:cmsis/device/system_stm32f10x.c ****   }
1076:cmsis/device/system_stm32f10x.c ****   else
1077:cmsis/device/system_stm32f10x.c ****   { /* If HSE fails to start-up, the application will have wrong clock 
1078:cmsis/device/system_stm32f10x.c ****          configuration. User can add here some code to deal with this error */
1079:cmsis/device/system_stm32f10x.c ****   }
1080:cmsis/device/system_stm32f10x.c **** }
 526              		.loc 1 1080 0 is_stmt 1
 527 03a0 07F10C07 		add	r7, r7, #12	@,,
 528 03a4 BD46     		mov	sp, r7
 529 03a6 80BC     		pop	{r7}
 530 03a8 7047     		bx	lr
 531              		.cfi_endproc
 532              	.LFE58:
 533              		.size	SetSysClockTo72, .-SetSysClockTo72
 534              	.Letext0:
 535              		.file 2 "/opt/gcc-arm-none-eabi-4_6-2012q4/bin/../lib/gcc/arm-none-eabi/4.6.2/../../../../arm-none
 536              		.file 3 "./cmsis/core/core_cm3.h"
 537              		.file 4 "cmsis/device/stm32f10x.h"
 538              		.file 5 "cmsis/device/system_stm32f10x.h"