ARM GAS  /var/folders/4x/ps5lfsx11bd3d9s8dj92yrt80000gn/T//cchexj5X.s 			page 1


   1              		.syntax unified
   2              		.cpu cortex-m3
   3              		.fpu softvfp
   4              		.eabi_attribute 20, 1	@ Tag_ABI_FP_denormal
   5              		.eabi_attribute 21, 1	@ Tag_ABI_FP_exceptions
   6              		.eabi_attribute 23, 3	@ Tag_ABI_FP_number_model
   7              		.eabi_attribute 24, 1	@ Tag_ABI_align8_needed
   8              		.eabi_attribute 25, 1	@ Tag_ABI_align8_preserved
   9              		.eabi_attribute 26, 1	@ Tag_ABI_enum_size
  10              		.eabi_attribute 30, 6	@ Tag_ABI_optimization_goals
  11              		.eabi_attribute 34, 1	@ Tag_CPU_unaligned_access
  12              		.eabi_attribute 18, 4	@ Tag_ABI_PCS_wchar_t
  13              		.file	"main.c"
  14              	@ GNU C (GNU Tools for ARM Embedded Processors) version 4.8.4 20140526 (release) [ARM/embedded-4_8-
  15              	@	compiled by GNU C version 4.2.1 (Based on Apple Inc. build 5658) (LLVM build 2336.9.00), GMP vers
  16              	@ GGC heuristics: --param ggc-min-expand=100 --param ggc-min-heapsize=131072
  17              	@ options passed:  -I . -I ./inc -I ./cmsis/core -I ./cmsis/device
  18              	@ -iprefix /opt/gcc-arm-none-eabi-4_8-2014q2/bin/../lib/gcc/arm-none-eabi/4.8.4/
  19              	@ -isysroot /opt/gcc-arm-none-eabi-4_8-2014q2/bin/../arm-none-eabi
  20              	@ -MD src/main.d -MF .dep/main.o.d -MP -MQ src/main.o -D__USES_INITFINI__
  21              	@ -D STM32F10X_MD -D RUN_FROM_FLASH=1 src/main.c -mthumb -mcpu=cortex-m3
  22              	@ -mfloat-abi=soft -mfpu=fpv4-sp-d16 -auxbase-strip src/main.o -gdwarf-2
  23              	@ -O0 -Wall -Wstrict-prototypes -fverbose-asm
  24              	@ options enabled:  -faggressive-loop-optimizations -fauto-inc-dec
  25              	@ -fbranch-count-reg -fcommon -fdelete-null-pointer-checks -fdwarf2-cfi-asm
  26              	@ -fearly-inlining -feliminate-unused-debug-types -ffunction-cse -fgcse-lm
  27              	@ -fgnu-runtime -fident -finline-atomics -fira-hoist-pressure
  28              	@ -fira-share-save-slots -fira-share-spill-slots -fivopts
  29              	@ -fkeep-static-consts -fleading-underscore -fmath-errno
  30              	@ -fmerge-debug-strings -fmove-loop-invariants -fpeephole
  31              	@ -fprefetch-loop-arrays -freg-struct-return
  32              	@ -fsched-critical-path-heuristic -fsched-dep-count-heuristic
  33              	@ -fsched-group-heuristic -fsched-interblock -fsched-last-insn-heuristic
  34              	@ -fsched-rank-heuristic -fsched-spec -fsched-spec-insn-heuristic
  35              	@ -fsched-stalled-insns-dep -fshow-column -fsigned-zeros
  36              	@ -fsplit-ivs-in-unroller -fstrict-volatile-bitfields -fsync-libcalls
  37              	@ -ftrapping-math -ftree-coalesce-vars -ftree-cselim -ftree-forwprop
  38              	@ -ftree-loop-if-convert -ftree-loop-im -ftree-loop-ivcanon
  39              	@ -ftree-loop-optimize -ftree-parallelize-loops= -ftree-phiprop -ftree-pta
  40              	@ -ftree-reassoc -ftree-scev-cprop -ftree-slp-vectorize
  41              	@ -ftree-vect-loop-version -funit-at-a-time -fverbose-asm
  42              	@ -fzero-initialized-in-bss -mfix-cortex-m3-ldrd -mlittle-endian
  43              	@ -mpic-data-is-text-relative -msched-prolog -mthumb -munaligned-access
  44              	@ -mvectorize-with-neon-quad
  45              	
  46              		.text
  47              	.Ltext0:
  48              		.cfi_sections	.debug_frame
  49              		.section	.rodata
  50              		.align	2
  51              		.type	d, %object
  52              		.size	d, 4
  53              	d:
  54 0000 07000000 		.word	7
  55              		.align	2
  56              		.type	fd, %object
  57              		.size	fd, 4
ARM GAS  /var/folders/4x/ps5lfsx11bd3d9s8dj92yrt80000gn/T//cchexj5X.s 			page 2


  58              	fd:
  59 0004 9A99A940 		.word	1084856730
  60              		.data
  61              		.align	2
  62              		.type	dd, %object
  63              		.size	dd, 4
  64              	dd:
  65 0000 08000000 		.word	8
  66              		.bss
  67              		.align	2
  68              	must_zero_after_startup:
  69 0000 00000000 		.space	4
  70              		.global	__aeabi_fadd
  71              		.text
  72              		.align	2
  73              		.global	main
  74              		.thumb
  75              		.thumb_func
  76              		.type	main, %function
  77              	main:
  78              	.LFB0:
  79              		.file 1 "src/main.c"
   1:src/main.c    **** /****************************************************************************
   2:src/main.c    **** *  Copyright (c) 2011-2012 by Michael Fischer. All rights reserved.
   3:src/main.c    **** *
   4:src/main.c    **** *  Redistribution and use in source and binary forms, with or without 
   5:src/main.c    **** *  modification, are permitted provided that the following conditions 
   6:src/main.c    **** *  are met:
   7:src/main.c    **** *  
   8:src/main.c    **** *  1. Redistributions of source code must retain the above copyright 
   9:src/main.c    **** *     notice, this list of conditions and the following disclaimer.
  10:src/main.c    **** *  2. Redistributions in binary form must reproduce the above copyright
  11:src/main.c    **** *     notice, this list of conditions and the following disclaimer in the 
  12:src/main.c    **** *     documentation and/or other materials provided with the distribution.
  13:src/main.c    **** *  3. Neither the name of the author nor the names of its contributors may 
  14:src/main.c    **** *     be used to endorse or promote products derived from this software 
  15:src/main.c    **** *     without specific prior written permission.
  16:src/main.c    **** *
  17:src/main.c    **** *  THIS SOFTWARE IS PROVIDED BY THE COPYRIGHT HOLDERS AND CONTRIBUTORS 
  18:src/main.c    **** *  "AS IS" AND ANY EXPRESS OR IMPLIED WARRANTIES, INCLUDING, BUT NOT 
  19:src/main.c    **** *  LIMITED TO, THE IMPLIED WARRANTIES OF MERCHANTABILITY AND FITNESS 
  20:src/main.c    **** *  FOR A PARTICULAR PURPOSE ARE DISCLAIMED. IN NO EVENT SHALL 
  21:src/main.c    **** *  THE COPYRIGHT OWNER OR CONTRIBUTORS BE LIABLE FOR ANY DIRECT, INDIRECT, 
  22:src/main.c    **** *  INCIDENTAL, SPECIAL, EXEMPLARY, OR CONSEQUENTIAL DAMAGES (INCLUDING, 
  23:src/main.c    **** *  BUT NOT LIMITED TO, PROCUREMENT OF SUBSTITUTE GOODS OR SERVICES; LOSS 
  24:src/main.c    **** *  OF USE, DATA, OR PROFITS; OR BUSINESS INTERRUPTION) HOWEVER CAUSED 
  25:src/main.c    **** *  AND ON ANY THEORY OF LIABILITY, WHETHER IN CONTRACT, STRICT LIABILITY, 
  26:src/main.c    **** *  OR TORT (INCLUDING NEGLIGENCE OR OTHERWISE) ARISING IN ANY WAY OUT OF 
  27:src/main.c    **** *  THE USE OF THIS SOFTWARE, EVEN IF ADVISED OF THE POSSIBILITY OF 
  28:src/main.c    **** *  SUCH DAMAGE.
  29:src/main.c    **** *
  30:src/main.c    **** ****************************************************************************
  31:src/main.c    **** *  History:
  32:src/main.c    **** *
  33:src/main.c    **** *  09.04.2011  mifi  First Version
  34:src/main.c    **** *  13.06.2012  mifi  Added "check" with must_zero_after_startup
  35:src/main.c    **** ****************************************************************************/
ARM GAS  /var/folders/4x/ps5lfsx11bd3d9s8dj92yrt80000gn/T//cchexj5X.s 			page 3


  36:src/main.c    **** #define __MAIN_C__
  37:src/main.c    **** 
  38:src/main.c    **** #include <stdint.h>
  39:src/main.c    **** 
  40:src/main.c    **** /*=========================================================================*/
  41:src/main.c    **** /*  DEFINE: All Structures and Common Constants                            */
  42:src/main.c    **** /*=========================================================================*/
  43:src/main.c    **** 
  44:src/main.c    **** /*=========================================================================*/
  45:src/main.c    **** /*  DEFINE: Prototypes                                                     */
  46:src/main.c    **** /*=========================================================================*/
  47:src/main.c    **** 
  48:src/main.c    **** /*=========================================================================*/
  49:src/main.c    **** /*  DEFINE: Definition of all local Data                                   */
  50:src/main.c    **** /*=========================================================================*/
  51:src/main.c    **** static const uint32_t d  = 7;
  52:src/main.c    **** static const float    fd = 5.3f;
  53:src/main.c    **** static uint32_t       dd = 8;
  54:src/main.c    **** 
  55:src/main.c    **** /* Must be 0, BSS must be cleared by the startup */
  56:src/main.c    **** static uint32_t       must_zero_after_startup;
  57:src/main.c    **** 
  58:src/main.c    **** /*=========================================================================*/
  59:src/main.c    **** /*  DEFINE: All code exported                                              */
  60:src/main.c    **** /*=========================================================================*/
  61:src/main.c    **** 
  62:src/main.c    **** /***************************************************************************/
  63:src/main.c    **** /*  main                                                                   */
  64:src/main.c    **** /***************************************************************************/
  65:src/main.c    **** int main (void)
  66:src/main.c    **** {
  80              		.loc 1 66 0
  81              		.cfi_startproc
  82              		@ args = 0, pretend = 0, frame = 24
  83              		@ frame_needed = 1, uses_anonymous_args = 0
  84 0000 80B5     		push	{r7, lr}	@
  85              	.LCFI0:
  86              		.cfi_def_cfa_offset 8
  87              		.cfi_offset 7, -8
  88              		.cfi_offset 14, -4
  89 0002 86B0     		sub	sp, sp, #24	@,,
  90              	.LCFI1:
  91              		.cfi_def_cfa_offset 32
  92 0004 00AF     		add	r7, sp, #0	@,,
  93              	.LCFI2:
  94              		.cfi_def_cfa_register 7
  67:src/main.c    ****   uint32_t a  = 1;
  95              		.loc 1 67 0
  96 0006 0123     		movs	r3, #1	@ tmp117,
  97 0008 7B61     		str	r3, [r7, #20]	@ tmp117, a
  68:src/main.c    ****   uint32_t b  = 2;
  98              		.loc 1 68 0
  99 000a 0223     		movs	r3, #2	@ tmp118,
 100 000c 3B61     		str	r3, [r7, #16]	@ tmp118, b
  69:src/main.c    ****   uint32_t c  = 0;
 101              		.loc 1 69 0
 102 000e 0023     		movs	r3, #0	@ tmp119,
ARM GAS  /var/folders/4x/ps5lfsx11bd3d9s8dj92yrt80000gn/T//cchexj5X.s 			page 4


 103 0010 7B60     		str	r3, [r7, #4]	@ tmp119, c
  70:src/main.c    ****   float    fa = 1.3f;
 104              		.loc 1 70 0
 105 0012 1C4B     		ldr	r3, .L4	@ tmp120,
 106 0014 FB60     		str	r3, [r7, #12]	@ float	@ tmp120, fa
  71:src/main.c    ****   float    fb = 2.7f;
 107              		.loc 1 71 0
 108 0016 1C4B     		ldr	r3, .L4+4	@ tmp121,
 109 0018 BB60     		str	r3, [r7, #8]	@ float	@ tmp121, fb
  72:src/main.c    ****   float    fc = 3.9f;
 110              		.loc 1 72 0
 111 001a 1C4B     		ldr	r3, .L4+8	@ tmp122,
 112 001c 3B60     		str	r3, [r7]	@ float	@ tmp122, fc
  73:src/main.c    ****   
  74:src/main.c    ****   fa = fa + fd;
 113              		.loc 1 74 0
 114 001e 1C4B     		ldr	r3, .L4+12	@ fd.0,
 115 0020 F868     		ldr	r0, [r7, #12]	@ float	@, fa
 116 0022 1946     		mov	r1, r3	@, fd.0
 117 0024 FFF7FEFF 		bl	__aeabi_fadd	@
 118 0028 0346     		mov	r3, r0	@ tmp123,
 119 002a FB60     		str	r3, [r7, #12]	@ float	@ tmp123, fa
  75:src/main.c    ****   a  = a + d + dd + must_zero_after_startup;
 120              		.loc 1 75 0
 121 002c 0722     		movs	r2, #7	@ d.1,
 122 002e 7B69     		ldr	r3, [r7, #20]	@ tmp124, a
 123 0030 1A44     		add	r2, r2, r3	@ D.4135, tmp124
 124 0032 184B     		ldr	r3, .L4+16	@ tmp125,
 125 0034 1B68     		ldr	r3, [r3]	@ dd.2, dd
 126 0036 1A44     		add	r2, r2, r3	@ D.4135, dd.2
 127 0038 174B     		ldr	r3, .L4+20	@ tmp126,
 128 003a 1B68     		ldr	r3, [r3]	@ must_zero_after_startup.3, must_zero_after_startup
 129 003c 1344     		add	r3, r3, r2	@ tmp127, D.4135
 130 003e 7B61     		str	r3, [r7, #20]	@ tmp127, a
  76:src/main.c    ****   
  77:src/main.c    ****   /* A must be 16 here */
  78:src/main.c    ****   if (a != 16) while (1) {};
 131              		.loc 1 78 0
 132 0040 7B69     		ldr	r3, [r7, #20]	@ tmp128, a
 133 0042 102B     		cmp	r3, #16	@ tmp128,
 134 0044 00D0     		beq	.L2	@,
 135              	.L3:
 136              		.loc 1 78 0 is_stmt 0 discriminator 1
 137 0046 FEE7     		b	.L3	@
 138              	.L2:
  79:src/main.c    ****     
  80:src/main.c    ****   while (1)
  81:src/main.c    ****   {
  82:src/main.c    ****     a++;
 139              		.loc 1 82 0 is_stmt 1 discriminator 1
 140 0048 7B69     		ldr	r3, [r7, #20]	@ tmp130, a
 141 004a 0133     		adds	r3, r3, #1	@ tmp129, tmp130,
 142 004c 7B61     		str	r3, [r7, #20]	@ tmp129, a
  83:src/main.c    ****     b++;
 143              		.loc 1 83 0 discriminator 1
 144 004e 3B69     		ldr	r3, [r7, #16]	@ tmp132, b
 145 0050 0133     		adds	r3, r3, #1	@ tmp131, tmp132,
ARM GAS  /var/folders/4x/ps5lfsx11bd3d9s8dj92yrt80000gn/T//cchexj5X.s 			page 5


 146 0052 3B61     		str	r3, [r7, #16]	@ tmp131, b
  84:src/main.c    ****     c = a + b;
 147              		.loc 1 84 0 discriminator 1
 148 0054 7A69     		ldr	r2, [r7, #20]	@ tmp134, a
 149 0056 3B69     		ldr	r3, [r7, #16]	@ tmp135, b
 150 0058 1344     		add	r3, r3, r2	@ tmp133, tmp134
 151 005a 7B60     		str	r3, [r7, #4]	@ tmp133, c
  85:src/main.c    ****     
  86:src/main.c    ****     fa = fa + 2.6f;
 152              		.loc 1 86 0 discriminator 1
 153 005c F868     		ldr	r0, [r7, #12]	@ float	@, fa
 154 005e 0F49     		ldr	r1, .L4+24	@,
 155 0060 FFF7FEFF 		bl	__aeabi_fadd	@
 156 0064 0346     		mov	r3, r0	@ tmp136,
 157 0066 FB60     		str	r3, [r7, #12]	@ float	@ tmp136, fa
  87:src/main.c    ****     fb = fb + 1.67f;
 158              		.loc 1 87 0 discriminator 1
 159 0068 B868     		ldr	r0, [r7, #8]	@ float	@, fb
 160 006a 0D49     		ldr	r1, .L4+28	@,
 161 006c FFF7FEFF 		bl	__aeabi_fadd	@
 162 0070 0346     		mov	r3, r0	@ tmp137,
 163 0072 BB60     		str	r3, [r7, #8]	@ float	@ tmp137, fb
  88:src/main.c    ****     fc = fa + fb;
 164              		.loc 1 88 0 discriminator 1
 165 0074 F868     		ldr	r0, [r7, #12]	@ float	@, fa
 166 0076 B968     		ldr	r1, [r7, #8]	@ float	@, fb
 167 0078 FFF7FEFF 		bl	__aeabi_fadd	@
 168 007c 0346     		mov	r3, r0	@ tmp138,
 169 007e 3B60     		str	r3, [r7]	@ float	@ tmp138, fc
  89:src/main.c    ****   }
 170              		.loc 1 89 0 discriminator 1
 171 0080 E2E7     		b	.L2	@
 172              	.L5:
 173 0082 00BF     		.align	2
 174              	.L4:
 175 0084 6666A63F 		.word	1067869798
 176 0088 CDCC2C40 		.word	1076677837
 177 008c 9A997940 		.word	1081711002
 178 0090 9A99A940 		.word	1084856730
 179 0094 00000000 		.word	dd
 180 0098 00000000 		.word	must_zero_after_startup
 181 009c 66662640 		.word	1076258406
 182 00a0 8FC2D53F 		.word	1070973583
 183              		.cfi_endproc
 184              	.LFE0:
 185              		.size	main, .-main
 186              	.Letext0:
 187              		.file 2 "/opt/gcc-arm-none-eabi-4_8-2014q2/arm-none-eabi/include/machine/_default_types.h"
 188              		.file 3 "/opt/gcc-arm-none-eabi-4_8-2014q2/arm-none-eabi/include/stdint.h"